ASxxxx Linker V03.00 + NoICE + sdld,  page 1.
Hexadecimal  [32-Bits]

Area                                    Addr        Size        Decimal Bytes (Attributes)
--------------------------------        ----        ----        ------- ----- ------------
CABS                                00000000    00000000 =           0. bytes (ABS,CON,CODE)

      Value  Global                              Global Defined In Module
      -----  --------------------------------   ------------------------
C:   00000000  l_BIT_BANK                      
C:   00000000  l_CABS                          
C:   00000000  l_GSINIT1                       
C:   00000000  l_GSINIT5                       
C:   00000000  l_IABS                          
C:   00000000  l_ISEG                          
C:   00000000  l_PSEG                          
C:   00000000  l_REG_BANK_1                    
C:   00000000  l_REG_BANK_2                    
C:   00000000  l_REG_BANK_3                    
C:   00000000  l_RSEG                          
C:   00000000  l_RSEG0                         
C:   00000000  l_RSEG1                         
C:   00000000  l_XABS                          
C:   00000000  l_XSEG                          
C:   00000000  l__CODE                         
C:   00000000  s_BSEG                          
C:   00000000  s_CABS                          
C:   00000000  s_DSEG                          
C:   00000000  s_HOME                          
C:   00000000  s_IABS                          
C:   00000000  s_ISEG                          
C:   00000000  s_REG_BANK_0                    
C:   00000000  s_RSEG                          
C:   00000000  s_RSEG0                         
C:   00000000  s_RSEG1                         
C:   00000000  s_XABS                          
C:   00000001  s_PSEG                          
C:   00000001  s_XISEG                         
C:   00000001  s_XSEG                          
C:   00000002  l_OSEG                          
C:   00000003  l_BSEG_BYTES                    
C:   00000003  l_GSFINAL                       
C:   00000003  l_GSINIT0                       
C:   00000008  l_REG_BANK_0                    
C:   00000008  s_REG_BANK_1                    
C:   0000000A  l_GSINIT2                       
C:   00000010  s_REG_BANK_2                    
C:   00000012  l_BSEG                          
C:   00000018  s_BIT_BANK                      
C:   00000018  s_REG_BANK_3                    
C:   0000001C  s_OSEG                          
C:   00000020  s_BSEG_BYTES                    
C:   00000020  s__CODE                         
C:   00000022  l_GSINIT3                       
C:   0000002A  l_GSINIT4                       
C:   0000002E  l_GSINIT                        
C:   0000003A  s_SSEG                          
C:   0000007E  l_DSEG                          
C:   00000089  l_HOME                          
ASxxxx Linker V03.00 + NoICE + sdld,  page 2.
Hexadecimal  [32-Bits]

Area                                    Addr        Size        Decimal Bytes (Attributes)
--------------------------------        ----        ----        ------- ----- ------------
CABS                                00000000    00000000 =           0. bytes (ABS,CON,CODE)

      Value  Global                              Global Defined In Module
      -----  --------------------------------   ------------------------
C:   00000089  s_GSINIT0                       
C:   0000008C  s_GSINIT1                       
C:   0000008C  s_GSINIT2                       
C:   00000096  s_GSINIT3                       
C:   000000B8  s_GSINIT4                       
C:   000000C6  l_SSEG                          
C:   000000E2  s_GSINIT                        
C:   000000E2  s_GSINIT5                       
C:   00000100  l_IRAM                          
C:   00000110  s_GSFINAL                       
C:   00000113  s_CSEG                          
C:   000001E0  l_CONST                         
C:   00000400  l_XINIT                         
C:   00000400  l_XISEG                         
C:   00001083  l_CSEG                          
C:   00001196  s_CONST                         
C:   00001376  s_XINIT                         

ASxxxx Linker V03.00 + NoICE + sdld,  page 3.
Hexadecimal  [32-Bits]

Area                                    Addr        Size        Decimal Bytes (Attributes)
--------------------------------        ----        ----        ------- ----- ------------
.  .ABS.                            00000000    00000000 =           0. bytes (ABS,CON)

      Value  Global                              Global Defined In Module
      -----  --------------------------------   ------------------------
     00000000  .__.ABS.                           _fsget1arg
     00000080  G$P0$0$0                           filtro
     00000080  G$P0_0$0$0                         filtro
     00000080  _P0                                filtro
     00000080  _P0_0                              filtro
     00000081  G$P0_1$0$0                         filtro
     00000081  G$SP$0$0                           filtro
     00000081  _P0_1                              filtro
     00000081  _SP                                filtro
     00000082  G$DPL$0$0                          filtro
     00000082  G$P0_2$0$0                         filtro
     00000082  _DPL                               filtro
     00000082  _P0_2                              filtro
     00000083  G$DPH$0$0                          filtro
     00000083  G$P0_3$0$0                         filtro
     00000083  _DPH                               filtro
     00000083  _P0_3                              filtro
     00000084  G$P0_4$0$0                         filtro
     00000084  G$SFRPAGE$0$0                      filtro
     00000084  _P0_4                              filtro
     00000084  _SFRPAGE                           filtro
     00000085  G$P0_5$0$0                         filtro
     00000085  G$SFRNEXT$0$0                      filtro
     00000085  _P0_5                              filtro
     00000085  _SFRNEXT                           filtro
     00000086  G$P0_6$0$0                         filtro
     00000086  G$SFRLAST$0$0                      filtro
     00000086  _P0_6                              filtro
     00000086  _SFRLAST                           filtro
     00000087  G$P0_7$0$0                         filtro
     00000087  G$PCON$0$0                         filtro
     00000087  _P0_7                              filtro
     00000087  _PCON                              filtro
     00000088  G$CP0HYN0$0$0                      filtro
     00000088  G$CP1HYN0$0$0                      filtro
     00000088  G$CP2HYN0$0$0                      filtro
     00000088  G$CPT0CN$0$0                       filtro
     00000088  G$CPT1CN$0$0                       filtro
     00000088  G$CPT2CN$0$0                       filtro
     00000088  G$IT0$0$0                          filtro
     00000088  G$TCON$0$0                         filtro
     00000088  _CP0HYN0                           filtro
     00000088  _CP1HYN0                           filtro
     00000088  _CP2HYN0                           filtro
     00000088  _CPT0CN                            filtro
     00000088  _CPT1CN                            filtro
     00000088  _CPT2CN                            filtro
     00000088  _IT0                               filtro
     00000088  _TCON                              filtro
     00000089  G$CP0HYN1$0$0                      filtro
ASxxxx Linker V03.00 + NoICE + sdld,  page 4.
Hexadecimal  [32-Bits]

Area                                    Addr        Size        Decimal Bytes (Attributes)
--------------------------------        ----        ----        ------- ----- ------------
.  .ABS.                            00000000    00000000 =           0. bytes (ABS,CON)

      Value  Global                              Global Defined In Module
      -----  --------------------------------   ------------------------
     00000089  G$CP1HYN1$0$0                      filtro
     00000089  G$CP2HYN1$0$0                      filtro
     00000089  G$CPT0MD$0$0                       filtro
     00000089  G$CPT1MD$0$0                       filtro
     00000089  G$CPT2MD$0$0                       filtro
     00000089  G$IE0$0$0                          filtro
     00000089  G$TMOD$0$0                         filtro
     00000089  _CP0HYN1                           filtro
     00000089  _CP1HYN1                           filtro
     00000089  _CP2HYN1                           filtro
     00000089  _CPT0MD                            filtro
     00000089  _CPT1MD                            filtro
     00000089  _CPT2MD                            filtro
     00000089  _IE0                               filtro
     00000089  _TMOD                              filtro
     0000008A  G$CP0HYP0$0$0                      filtro
     0000008A  G$CP1HYP0$0$0                      filtro
     0000008A  G$CP2HYP0$0$0                      filtro
     0000008A  G$IT1$0$0                          filtro
     0000008A  G$OSCICN$0$0                       filtro
     0000008A  G$TL0$0$0                          filtro
     0000008A  _CP0HYP0                           filtro
     0000008A  _CP1HYP0                           filtro
     0000008A  _CP2HYP0                           filtro
     0000008A  _IT1                               filtro
     0000008A  _OSCICN                            filtro
     0000008A  _TL0                               filtro
     0000008B  G$CP0HYP1$0$0                      filtro
     0000008B  G$CP1HYP1$0$0                      filtro
     0000008B  G$CP2HYP1$0$0                      filtro
     0000008B  G$IE1$0$0                          filtro
     0000008B  G$OSCICL$0$0                       filtro
     0000008B  G$TL1$0$0                          filtro
     0000008B  _CP0HYP1                           filtro
     0000008B  _CP1HYP1                           filtro
     0000008B  _CP2HYP1                           filtro
     0000008B  _IE1                               filtro
     0000008B  _OSCICL                            filtro
     0000008B  _TL1                               filtro
     0000008C  G$CP0FIF$0$0                       filtro
     0000008C  G$CP1FIF$0$0                       filtro
     0000008C  G$CP2FIF$0$0                       filtro
     0000008C  G$OSCXCN$0$0                       filtro
     0000008C  G$TH0$0$0                          filtro
     0000008C  G$TR0$0$0                          filtro
     0000008C  _CP0FIF                            filtro
     0000008C  _CP1FIF                            filtro
     0000008C  _CP2FIF                            filtro
     0000008C  _OSCXCN                            filtro
     0000008C  _TH0                               filtro
     0000008C  _TR0                               filtro
ASxxxx Linker V03.00 + NoICE + sdld,  page 5.
Hexadecimal  [32-Bits]

Area                                    Addr        Size        Decimal Bytes (Attributes)
--------------------------------        ----        ----        ------- ----- ------------
.  .ABS.                            00000000    00000000 =           0. bytes (ABS,CON)

      Value  Global                              Global Defined In Module
      -----  --------------------------------   ------------------------
     0000008D  G$CP0RIF$0$0                       filtro
     0000008D  G$CP1RIF$0$0                       filtro
     0000008D  G$CP2RIF$0$0                       filtro
     0000008D  G$TF0$0$0                          filtro
     0000008D  G$TH1$0$0                          filtro
     0000008D  _CP0RIF                            filtro
     0000008D  _CP1RIF                            filtro
     0000008D  _CP2RIF                            filtro
     0000008D  _TF0                               filtro
     0000008D  _TH1                               filtro
     0000008E  G$CKCON$0$0                        filtro
     0000008E  G$CP0OUT$0$0                       filtro
     0000008E  G$CP1OUT$0$0                       filtro
     0000008E  G$CP2OUT$0$0                       filtro
     0000008E  G$TR1$0$0                          filtro
     0000008E  _CKCON                             filtro
     0000008E  _CP0OUT                            filtro
     0000008E  _CP1OUT                            filtro
     0000008E  _CP2OUT                            filtro
     0000008E  _TR1                               filtro
     0000008F  G$CP0EN$0$0                        filtro
     0000008F  G$CP1EN$0$0                        filtro
     0000008F  G$CP2EN$0$0                        filtro
     0000008F  G$PSCTL$0$0                        filtro
     0000008F  G$TF1$0$0                          filtro
     0000008F  _CP0EN                             filtro
     0000008F  _CP1EN                             filtro
     0000008F  _CP2EN                             filtro
     0000008F  _PSCTL                             filtro
     0000008F  _TF1                               filtro
     00000090  G$P1$0$0                           filtro
     00000090  G$P1_0$0$0                         filtro
     00000090  _P1                                filtro
     00000090  _P1_0                              filtro
     00000091  G$P1_1$0$0                         filtro
     00000091  G$SSTA0$0$0                        filtro
     00000091  _P1_1                              filtro
     00000091  _SSTA0                             filtro
     00000092  G$P1_2$0$0                         filtro
     00000092  _P1_2                              filtro
     00000093  G$P1_3$0$0                         filtro
     00000093  _P1_3                              filtro
     00000094  G$P1_4$0$0                         filtro
     00000094  _P1_4                              filtro
     00000095  G$P1_5$0$0                         filtro
     00000095  _P1_5                              filtro
     00000096  G$P1_6$0$0                         filtro
     00000096  G$SFRPGCN$0$0                      filtro
     00000096  _P1_6                              filtro
     00000096  _SFRPGCN                           filtro
     00000097  G$CLKSEL$0$0                       filtro
ASxxxx Linker V03.00 + NoICE + sdld,  page 6.
Hexadecimal  [32-Bits]

Area                                    Addr        Size        Decimal Bytes (Attributes)
--------------------------------        ----        ----        ------- ----- ------------
.  .ABS.                            00000000    00000000 =           0. bytes (ABS,CON)

      Value  Global                              Global Defined In Module
      -----  --------------------------------   ------------------------
     00000097  G$P1_7$0$0                         filtro
     00000097  _CLKSEL                            filtro
     00000097  _P1_7                              filtro
     00000098  G$RI0$0$0                          filtro
     00000098  G$RI1$0$0                          filtro
     00000098  G$SCON0$0$0                        filtro
     00000098  G$SCON1$0$0                        filtro
     00000098  _RI0                               filtro
     00000098  _RI1                               filtro
     00000098  _SCON0                             filtro
     00000098  _SCON1                             filtro
     00000099  G$SBUF0$0$0                        filtro
     00000099  G$SBUF1$0$0                        filtro
     00000099  G$TI0$0$0                          filtro
     00000099  G$TI1$0$0                          filtro
     00000099  _SBUF0                             filtro
     00000099  _SBUF1                             filtro
     00000099  _TI0                               filtro
     00000099  _TI1                               filtro
     0000009A  G$RB80$0$0                         filtro
     0000009A  G$RB81$0$0                         filtro
     0000009A  G$SPI0CFG$0$0                      filtro
     0000009A  _RB80                              filtro
     0000009A  _RB81                              filtro
     0000009A  _SPI0CFG                           filtro
     0000009B  G$SPI0DAT$0$0                      filtro
     0000009B  G$TB80$0$0                         filtro
     0000009B  G$TB81$0$0                         filtro
     0000009B  _SPI0DAT                           filtro
     0000009B  _TB80                              filtro
     0000009B  _TB81                              filtro
     0000009C  G$P4MDOUT$0$0                      filtro
     0000009C  G$REN0$0$0                         filtro
     0000009C  G$REN1$0$0                         filtro
     0000009C  _P4MDOUT                           filtro
     0000009C  _REN0                              filtro
     0000009C  _REN1                              filtro
     0000009D  G$MCE1$0$0                         filtro
     0000009D  G$P5MDOUT$0$0                      filtro
     0000009D  G$SM20$0$0                         filtro
     0000009D  G$SPI0CKR$0$0                      filtro
     0000009D  _MCE1                              filtro
     0000009D  _P5MDOUT                           filtro
     0000009D  _SM20                              filtro
     0000009D  _SPI0CKR                           filtro
     0000009E  G$P6MDOUT$0$0                      filtro
     0000009E  G$SM10$0$0                         filtro
     0000009E  _P6MDOUT                           filtro
     0000009E  _SM10                              filtro
     0000009F  G$P7MDOUT$0$0                      filtro
     0000009F  G$S1MODE$0$0                       filtro
ASxxxx Linker V03.00 + NoICE + sdld,  page 7.
Hexadecimal  [32-Bits]

Area                                    Addr        Size        Decimal Bytes (Attributes)
--------------------------------        ----        ----        ------- ----- ------------
.  .ABS.                            00000000    00000000 =           0. bytes (ABS,CON)

      Value  Global                              Global Defined In Module
      -----  --------------------------------   ------------------------
     0000009F  G$SM00$0$0                         filtro
     0000009F  _P7MDOUT                           filtro
     0000009F  _S1MODE                            filtro
     0000009F  _SM00                              filtro
     000000A0  G$P2$0$0                           filtro
     000000A0  G$P2_0$0$0                         filtro
     000000A0  _P2                                filtro
     000000A0  _P2_0                              filtro
     000000A1  G$EMI0TC$0$0                       filtro
     000000A1  G$P2_1$0$0                         filtro
     000000A1  _EMI0TC                            filtro
     000000A1  _P2_1                              filtro
     000000A2  G$EMI0CN$0$0                       filtro
     000000A2  G$P2_2$0$0                         filtro
     000000A2  G$_XPAGE$0$0                       filtro
     000000A2  _EMI0CN                            filtro
     000000A2  _P2_2                              filtro
     000000A2  __XPAGE                            filtro
     000000A3  G$EMI0CF$0$0                       filtro
     000000A3  G$P2_3$0$0                         filtro
     000000A3  _EMI0CF                            filtro
     000000A3  _P2_3                              filtro
     000000A4  G$P0MDOUT$0$0                      filtro
     000000A4  G$P2_4$0$0                         filtro
     000000A4  _P0MDOUT                           filtro
     000000A4  _P2_4                              filtro
     000000A5  G$P1MDOUT$0$0                      filtro
     000000A5  G$P2_5$0$0                         filtro
     000000A5  _P1MDOUT                           filtro
     000000A5  _P2_5                              filtro
     000000A6  G$P2MDOUT$0$0                      filtro
     000000A6  G$P2_6$0$0                         filtro
     000000A6  _P2MDOUT                           filtro
     000000A6  _P2_6                              filtro
     000000A7  G$P2_7$0$0                         filtro
     000000A7  G$P3MDOUT$0$0                      filtro
     000000A7  _P2_7                              filtro
     000000A7  _P3MDOUT                           filtro
     000000A8  G$EX0$0$0                          filtro
     000000A8  G$IE$0$0                           filtro
     000000A8  _EX0                               filtro
     000000A8  _IE                                filtro
     000000A9  G$ET0$0$0                          filtro
     000000A9  G$SADDR0$0$0                       filtro
     000000A9  G$SADDR1$0$0                       filtro
     000000A9  _ET0                               filtro
     000000A9  _SADDR0                            filtro
     000000A9  _SADDR1                            filtro
     000000AA  G$EX1$0$0                          filtro
     000000AA  _EX1                               filtro
     000000AB  G$ET1$0$0                          filtro
ASxxxx Linker V03.00 + NoICE + sdld,  page 8.
Hexadecimal  [32-Bits]

Area                                    Addr        Size        Decimal Bytes (Attributes)
--------------------------------        ----        ----        ------- ----- ------------
.  .ABS.                            00000000    00000000 =           0. bytes (ABS,CON)

      Value  Global                              Global Defined In Module
      -----  --------------------------------   ------------------------
     000000AB  _ET1                               filtro
     000000AC  G$ES0$0$0                          filtro
     000000AC  _ES0                               filtro
     000000AD  G$ET2$0$0                          filtro
     000000AD  G$P1MDIN$0$0                       filtro
     000000AD  _ET2                               filtro
     000000AD  _P1MDIN                            filtro
     000000AE  G$P2MDIN$0$0                       filtro
     000000AE  _P2MDIN                            filtro
     000000AF  G$EA$0$0                           filtro
     000000AF  G$P3MDIN$0$0                       filtro
     000000AF  _EA                                filtro
     000000AF  _P3MDIN                            filtro
     000000B0  G$P3$0$0                           filtro
     000000B0  G$P3_0$0$0                         filtro
     000000B0  _P3                                filtro
     000000B0  _P3_0                              filtro
     000000B1  G$P3_1$0$0                         filtro
     000000B1  _P3_1                              filtro
     000000B2  G$P3_2$0$0                         filtro
     000000B2  _P3_2                              filtro
     000000B3  G$P3_3$0$0                         filtro
     000000B3  _P3_3                              filtro
     000000B4  G$P3_4$0$0                         filtro
     000000B4  _P3_4                              filtro
     000000B5  G$P3_5$0$0                         filtro
     000000B5  _P3_5                              filtro
     000000B6  G$P3_6$0$0                         filtro
     000000B6  _P3_6                              filtro
     000000B7  G$FLACL$0$0                        filtro
     000000B7  G$FLSCL$0$0                        filtro
     000000B7  G$P3_7$0$0                         filtro
     000000B7  _FLACL                             filtro
     000000B7  _FLSCL                             filtro
     000000B7  _P3_7                              filtro
     000000B8  G$IP$0$0                           filtro
     000000B8  G$PX0$0$0                          filtro
     000000B8  _IP                                filtro
     000000B8  _PX0                               filtro
     000000B9  G$PT0$0$0                          filtro
     000000B9  G$SADEN0$0$0                       filtro
     000000B9  _PT0                               filtro
     000000B9  _SADEN0                            filtro
     000000BA  G$AMX0CF$0$0                       filtro
     000000BA  G$AMX2CF$0$0                       filtro
     000000BA  G$PX1$0$0                          filtro
     000000BA  _AMX0CF                            filtro
     000000BA  _AMX2CF                            filtro
     000000BA  _PX1                               filtro
     000000BB  G$AMX0SL$0$0                       filtro
     000000BB  G$AMX2SL$0$0                       filtro
ASxxxx Linker V03.00 + NoICE + sdld,  page 9.
Hexadecimal  [32-Bits]

Area                                    Addr        Size        Decimal Bytes (Attributes)
--------------------------------        ----        ----        ------- ----- ------------
.  .ABS.                            00000000    00000000 =           0. bytes (ABS,CON)

      Value  Global                              Global Defined In Module
      -----  --------------------------------   ------------------------
     000000BB  G$PT1$0$0                          filtro
     000000BB  _AMX0SL                            filtro
     000000BB  _AMX2SL                            filtro
     000000BB  _PT1                               filtro
     000000BC  G$ADC0CF$0$0                       filtro
     000000BC  G$ADC2CF$0$0                       filtro
     000000BC  G$PS0$0$0                          filtro
     000000BC  _ADC0CF                            filtro
     000000BC  _ADC2CF                            filtro
     000000BC  _PS0                               filtro
     000000BD  G$AMX0PRT$0$0                      filtro
     000000BD  G$PT2$0$0                          filtro
     000000BD  _AMX0PRT                           filtro
     000000BD  _PT2                               filtro
     000000BE  G$ADC0L$0$0                        filtro
     000000BE  G$ADC2$0$0                         filtro
     000000BE  _ADC0L                             filtro
     000000BE  _ADC2                              filtro
     000000BF  G$ADC0H$0$0                        filtro
     000000BF  _ADC0H                             filtro
     000000C0  G$CAN0STA$0$0                      filtro
     000000C0  G$LEC0$0$0                         filtro
     000000C0  G$SMB0CN$0$0                       filtro
     000000C0  G$SMBTOE$0$0                       filtro
     000000C0  _CAN0STA                           filtro
     000000C0  _LEC0                              filtro
     000000C0  _SMB0CN                            filtro
     000000C0  _SMBTOE                            filtro
     000000C1  G$LEC1$0$0                         filtro
     000000C1  G$SMB0STA$0$0                      filtro
     000000C1  G$SMBFTE$0$0                       filtro
     000000C1  _LEC1                              filtro
     000000C1  _SMB0STA                           filtro
     000000C1  _SMBFTE                            filtro
     000000C2  G$AA$0$0                           filtro
     000000C2  G$LEC2$0$0                         filtro
     000000C2  G$SMB0DAT$0$0                      filtro
     000000C2  _AA                                filtro
     000000C2  _LEC2                              filtro
     000000C2  _SMB0DAT                           filtro
     000000C3  G$SI$0$0                           filtro
     000000C3  G$SMB0ADR$0$0                      filtro
     000000C3  G$TXOK$0$0                         filtro
     000000C3  _SI                                filtro
     000000C3  _SMB0ADR                           filtro
     000000C3  _TXOK                              filtro
     000000C4  G$ADC0GTL$0$0                      filtro
     000000C4  G$ADC2GT$0$0                       filtro
     000000C4  G$RXOK$0$0                         filtro
     000000C4  G$STO$0$0                          filtro
     000000C4  _ADC0GTL                           filtro
ASxxxx Linker V03.00 + NoICE + sdld,  page 10.
Hexadecimal  [32-Bits]

Area                                    Addr        Size        Decimal Bytes (Attributes)
--------------------------------        ----        ----        ------- ----- ------------
.  .ABS.                            00000000    00000000 =           0. bytes (ABS,CON)

      Value  Global                              Global Defined In Module
      -----  --------------------------------   ------------------------
     000000C4  _ADC2GT                            filtro
     000000C4  _RXOK                              filtro
     000000C4  _STO                               filtro
     000000C5  G$ADC0GTH$0$0                      filtro
     000000C5  G$EPASS$0$0                        filtro
     000000C5  G$STA$0$0                          filtro
     000000C5  _ADC0GTH                           filtro
     000000C5  _EPASS                             filtro
     000000C5  _STA                               filtro
     000000C6  G$ADC0LTL$0$0                      filtro
     000000C6  G$ADC2LT$0$0                       filtro
     000000C6  G$ENSMB$0$0                        filtro
     000000C6  G$EWARN$0$0                        filtro
     000000C6  _ADC0LTL                           filtro
     000000C6  _ADC2LT                            filtro
     000000C6  _ENSMB                             filtro
     000000C6  _EWARN                             filtro
     000000C7  G$ADC0LTH$0$0                      filtro
     000000C7  G$BOFF$0$0                         filtro
     000000C7  G$BUSY$0$0                         filtro
     000000C7  _ADC0LTH                           filtro
     000000C7  _BOFF                              filtro
     000000C7  _BUSY                              filtro
     000000C8  G$CPRL2$0$0                        filtro
     000000C8  G$CPRL3$0$0                        filtro
     000000C8  G$CPRL4$0$0                        filtro
     000000C8  G$P4$0$0                           filtro
     000000C8  G$P4_0$0$0                         filtro
     000000C8  G$TMR2CN$0$0                       filtro
     000000C8  G$TMR3CN$0$0                       filtro
     000000C8  G$TMR4CN$0$0                       filtro
     000000C8  _CPRL2                             filtro
     000000C8  _CPRL3                             filtro
     000000C8  _CPRL4                             filtro
     000000C8  _P4                                filtro
     000000C8  _P4_0                              filtro
     000000C8  _TMR2CN                            filtro
     000000C8  _TMR3CN                            filtro
     000000C8  _TMR4CN                            filtro
     000000C9  G$CT2$0$0                          filtro
     000000C9  G$CT3$0$0                          filtro
     000000C9  G$CT4$0$0                          filtro
     000000C9  G$P4_1$0$0                         filtro
     000000C9  G$TMR2CF$0$0                       filtro
     000000C9  G$TMR3CF$0$0                       filtro
     000000C9  G$TMR4CF$0$0                       filtro
     000000C9  _CT2                               filtro
     000000C9  _CT3                               filtro
     000000C9  _CT4                               filtro
     000000C9  _P4_1                              filtro
     000000C9  _TMR2CF                            filtro
ASxxxx Linker V03.00 + NoICE + sdld,  page 11.
Hexadecimal  [32-Bits]

Area                                    Addr        Size        Decimal Bytes (Attributes)
--------------------------------        ----        ----        ------- ----- ------------
.  .ABS.                            00000000    00000000 =           0. bytes (ABS,CON)

      Value  Global                              Global Defined In Module
      -----  --------------------------------   ------------------------
     000000C9  _TMR3CF                            filtro
     000000C9  _TMR4CF                            filtro
     000000CA  G$P4_2$0$0                         filtro
     000000CA  G$RCAP2L$0$0                       filtro
     000000CA  G$RCAP3L$0$0                       filtro
     000000CA  G$RCAP4L$0$0                       filtro
     000000CA  G$TR2$0$0                          filtro
     000000CA  G$TR3$0$0                          filtro
     000000CA  G$TR4$0$0                          filtro
     000000CA  _P4_2                              filtro
     000000CA  _RCAP2L                            filtro
     000000CA  _RCAP3L                            filtro
     000000CA  _RCAP4L                            filtro
     000000CA  _TR2                               filtro
     000000CA  _TR3                               filtro
     000000CA  _TR4                               filtro
     000000CB  G$EXEN2$0$0                        filtro
     000000CB  G$EXEN3$0$0                        filtro
     000000CB  G$EXEN4$0$0                        filtro
     000000CB  G$P4_3$0$0                         filtro
     000000CB  G$RCAP2H$0$0                       filtro
     000000CB  G$RCAP3H$0$0                       filtro
     000000CB  G$RCAP4H$0$0                       filtro
     000000CB  _EXEN2                             filtro
     000000CB  _EXEN3                             filtro
     000000CB  _EXEN4                             filtro
     000000CB  _P4_3                              filtro
     000000CB  _RCAP2H                            filtro
     000000CB  _RCAP3H                            filtro
     000000CB  _RCAP4H                            filtro
     000000CC  G$P4_4$0$0                         filtro
     000000CC  G$TMR2L$0$0                        filtro
     000000CC  G$TMR3L$0$0                        filtro
     000000CC  G$TMR4L$0$0                        filtro
     000000CC  _P4_4                              filtro
     000000CC  _TMR2L                             filtro
     000000CC  _TMR3L                             filtro
     000000CC  _TMR4L                             filtro
     000000CD  G$P4_5$0$0                         filtro
     000000CD  G$TMR2H$0$0                        filtro
     000000CD  G$TMR3H$0$0                        filtro
     000000CD  G$TMR4H$0$0                        filtro
     000000CD  _P4_5                              filtro
     000000CD  _TMR2H                             filtro
     000000CD  _TMR3H                             filtro
     000000CD  _TMR4H                             filtro
     000000CE  G$EXF2$0$0                         filtro
     000000CE  G$EXF3$0$0                         filtro
     000000CE  G$EXF4$0$0                         filtro
     000000CE  G$P4_6$0$0                         filtro
     000000CE  _EXF2                              filtro
ASxxxx Linker V03.00 + NoICE + sdld,  page 12.
Hexadecimal  [32-Bits]

Area                                    Addr        Size        Decimal Bytes (Attributes)
--------------------------------        ----        ----        ------- ----- ------------
.  .ABS.                            00000000    00000000 =           0. bytes (ABS,CON)

      Value  Global                              Global Defined In Module
      -----  --------------------------------   ------------------------
     000000CE  _EXF3                              filtro
     000000CE  _EXF4                              filtro
     000000CE  _P4_6                              filtro
     000000CF  G$P4_7$0$0                         filtro
     000000CF  G$SMB0CR$0$0                       filtro
     000000CF  G$TF2$0$0                          filtro
     000000CF  G$TF3$0$0                          filtro
     000000CF  G$TF4$0$0                          filtro
     000000CF  _P4_7                              filtro
     000000CF  _SMB0CR                            filtro
     000000CF  _TF2                               filtro
     000000CF  _TF3                               filtro
     000000CF  _TF4                               filtro
     000000D0  G$P$0$0                            filtro
     000000D0  G$PSW$0$0                          filtro
     000000D0  _P                                 filtro
     000000D0  _PSW                               filtro
     000000D1  G$F1$0$0                           filtro
     000000D1  G$REF0CN$0$0                       filtro
     000000D1  _F1                                filtro
     000000D1  _REF0CN                            filtro
     000000D2  G$DAC0L$0$0                        filtro
     000000D2  G$DAC1L$0$0                        filtro
     000000D2  G$OV$0$0                           filtro
     000000D2  _DAC0L                             filtro
     000000D2  _DAC1L                             filtro
     000000D2  _OV                                filtro
     000000D3  G$DAC0H$0$0                        filtro
     000000D3  G$DAC1H$0$0                        filtro
     000000D3  G$RS0$0$0                          filtro
     000000D3  _DAC0H                             filtro
     000000D3  _DAC1H                             filtro
     000000D3  _RS0                               filtro
     000000D4  G$DAC0CN$0$0                       filtro
     000000D4  G$DAC1CN$0$0                       filtro
     000000D4  G$RS1$0$0                          filtro
     000000D4  _DAC0CN                            filtro
     000000D4  _DAC1CN                            filtro
     000000D4  _RS1                               filtro
     000000D5  G$F0$0$0                           filtro
     000000D5  _F0                                filtro
     000000D6  G$AC$0$0                           filtro
     000000D6  G$HVA0CN$0$0                       filtro
     000000D6  _AC                                filtro
     000000D6  _HVA0CN                            filtro
     000000D7  G$CY$0$0                           filtro
     000000D7  _CY                                filtro
     000000D8  G$CAN0DATL$0$0                     filtro
     000000D8  G$CCF0$0$0                         filtro
     000000D8  G$P5$0$0                           filtro
     000000D8  G$P5_0$0$0                         filtro
ASxxxx Linker V03.00 + NoICE + sdld,  page 13.
Hexadecimal  [32-Bits]

Area                                    Addr        Size        Decimal Bytes (Attributes)
--------------------------------        ----        ----        ------- ----- ------------
.  .ABS.                            00000000    00000000 =           0. bytes (ABS,CON)

      Value  Global                              Global Defined In Module
      -----  --------------------------------   ------------------------
     000000D8  G$PCA0CN$0$0                       filtro
     000000D8  _CAN0DATL                          filtro
     000000D8  _CCF0                              filtro
     000000D8  _P5                                filtro
     000000D8  _P5_0                              filtro
     000000D8  _PCA0CN                            filtro
     000000D9  G$CAN0DATH$0$0                     filtro
     000000D9  G$CCF1$0$0                         filtro
     000000D9  G$P5_1$0$0                         filtro
     000000D9  G$PCA0MD$0$0                       filtro
     000000D9  _CAN0DATH                          filtro
     000000D9  _CCF1                              filtro
     000000D9  _P5_1                              filtro
     000000D9  _PCA0MD                            filtro
     000000DA  G$CAN0ADR$0$0                      filtro
     000000DA  G$CCF2$0$0                         filtro
     000000DA  G$P5_2$0$0                         filtro
     000000DA  G$PCA0CPM0$0$0                     filtro
     000000DA  _CAN0ADR                           filtro
     000000DA  _CCF2                              filtro
     000000DA  _P5_2                              filtro
     000000DA  _PCA0CPM0                          filtro
     000000DB  G$CAN0TST$0$0                      filtro
     000000DB  G$CCF3$0$0                         filtro
     000000DB  G$P5_3$0$0                         filtro
     000000DB  G$PCA0CPM1$0$0                     filtro
     000000DB  _CAN0TST                           filtro
     000000DB  _CCF3                              filtro
     000000DB  _P5_3                              filtro
     000000DB  _PCA0CPM1                          filtro
     000000DC  G$CCF4$0$0                         filtro
     000000DC  G$P5_4$0$0                         filtro
     000000DC  G$PCA0CPM2$0$0                     filtro
     000000DC  _CCF4                              filtro
     000000DC  _P5_4                              filtro
     000000DC  _PCA0CPM2                          filtro
     000000DD  G$CCF5$0$0                         filtro
     000000DD  G$P5_5$0$0                         filtro
     000000DD  G$PCA0CPM3$0$0                     filtro
     000000DD  _CCF5                              filtro
     000000DD  _P5_5                              filtro
     000000DD  _PCA0CPM3                          filtro
     000000DE  G$CR$0$0                           filtro
     000000DE  G$P5_6$0$0                         filtro
     000000DE  G$PCA0CPM4$0$0                     filtro
     000000DE  _CR                                filtro
     000000DE  _P5_6                              filtro
     000000DE  _PCA0CPM4                          filtro
     000000DF  G$CF$0$0                           filtro
     000000DF  G$P5_7$0$0                         filtro
     000000DF  G$PCA0CPM5$0$0                     filtro
ASxxxx Linker V03.00 + NoICE + sdld,  page 14.
Hexadecimal  [32-Bits]

Area                                    Addr        Size        Decimal Bytes (Attributes)
--------------------------------        ----        ----        ------- ----- ------------
.  .ABS.                            00000000    00000000 =           0. bytes (ABS,CON)

      Value  Global                              Global Defined In Module
      -----  --------------------------------   ------------------------
     000000DF  _CF                                filtro
     000000DF  _P5_7                              filtro
     000000DF  _PCA0CPM5                          filtro
     000000E0  G$ACC$0$0                          filtro
     000000E0  _ACC                               filtro
     000000E1  G$PCA0CPL5$0$0                     filtro
     000000E1  G$XBR0$0$0                         filtro
     000000E1  _PCA0CPL5                          filtro
     000000E1  _XBR0                              filtro
     000000E2  G$PCA0CPH5$0$0                     filtro
     000000E2  G$XBR1$0$0                         filtro
     000000E2  _PCA0CPH5                          filtro
     000000E2  _XBR1                              filtro
     000000E3  G$XBR2$0$0                         filtro
     000000E3  _XBR2                              filtro
     000000E4  G$XBR3$0$0                         filtro
     000000E4  _XBR3                              filtro
     000000E6  G$EIE1$0$0                         filtro
     000000E6  _EIE1                              filtro
     000000E7  G$EIE2$0$0                         filtro
     000000E7  _EIE2                              filtro
     000000E8  G$AD0LJST$0$0                      filtro
     000000E8  G$AD2WINT$0$0                      filtro
     000000E8  G$ADC0CN$0$0                       filtro
     000000E8  G$ADC2CN$0$0                       filtro
     000000E8  G$P6$0$0                           filtro
     000000E8  G$P6_0$0$0                         filtro
     000000E8  _AD0LJST                           filtro
     000000E8  _AD2WINT                           filtro
     000000E8  _ADC0CN                            filtro
     000000E8  _ADC2CN                            filtro
     000000E8  _P6                                filtro
     000000E8  _P6_0                              filtro
     000000E9  G$AD0WINT$0$0                      filtro
     000000E9  G$AD2CM0$0$0                       filtro
     000000E9  G$P6_1$0$0                         filtro
     000000E9  G$PCA0CPL2$0$0                     filtro
     000000E9  _AD0WINT                           filtro
     000000E9  _AD2CM0                            filtro
     000000E9  _P6_1                              filtro
     000000E9  _PCA0CPL2                          filtro
     000000EA  G$AD0CM0$0$0                       filtro
     000000EA  G$AD2CM1$0$0                       filtro
     000000EA  G$P6_2$0$0                         filtro
     000000EA  G$PCA0CPH2$0$0                     filtro
     000000EA  _AD0CM0                            filtro
     000000EA  _AD2CM1                            filtro
     000000EA  _P6_2                              filtro
     000000EA  _PCA0CPH2                          filtro
     000000EB  G$AD0CM1$0$0                       filtro
     000000EB  G$AD2CM2$0$0                       filtro
ASxxxx Linker V03.00 + NoICE + sdld,  page 15.
Hexadecimal  [32-Bits]

Area                                    Addr        Size        Decimal Bytes (Attributes)
--------------------------------        ----        ----        ------- ----- ------------
.  .ABS.                            00000000    00000000 =           0. bytes (ABS,CON)

      Value  Global                              Global Defined In Module
      -----  --------------------------------   ------------------------
     000000EB  G$P6_3$0$0                         filtro
     000000EB  G$PCA0CPL3$0$0                     filtro
     000000EB  _AD0CM1                            filtro
     000000EB  _AD2CM2                            filtro
     000000EB  _P6_3                              filtro
     000000EB  _PCA0CPL3                          filtro
     000000EC  G$AD0BUSY$0$0                      filtro
     000000EC  G$AD2BUSY$0$0                      filtro
     000000EC  G$P6_4$0$0                         filtro
     000000EC  G$PCA0CPH3$0$0                     filtro
     000000EC  _AD0BUSY                           filtro
     000000EC  _AD2BUSY                           filtro
     000000EC  _P6_4                              filtro
     000000EC  _PCA0CPH3                          filtro
     000000ED  G$AD0INT$0$0                       filtro
     000000ED  G$AD2INT$0$0                       filtro
     000000ED  G$P6_5$0$0                         filtro
     000000ED  G$PCA0CPL4$0$0                     filtro
     000000ED  _AD0INT                            filtro
     000000ED  _AD2INT                            filtro
     000000ED  _P6_5                              filtro
     000000ED  _PCA0CPL4                          filtro
     000000EE  G$AD0TM$0$0                        filtro
     000000EE  G$AD2TM$0$0                        filtro
     000000EE  G$P6_6$0$0                         filtro
     000000EE  G$PCA0CPH4$0$0                     filtro
     000000EE  _AD0TM                             filtro
     000000EE  _AD2TM                             filtro
     000000EE  _P6_6                              filtro
     000000EE  _PCA0CPH4                          filtro
     000000EF  G$AD0EN$0$0                        filtro
     000000EF  G$AD2EN$0$0                        filtro
     000000EF  G$P6_7$0$0                         filtro
     000000EF  G$RSTSRC$0$0                       filtro
     000000EF  _AD0EN                             filtro
     000000EF  _AD2EN                             filtro
     000000EF  _P6_7                              filtro
     000000EF  _RSTSRC                            filtro
     000000F0  G$B$0$0                            filtro
     000000F0  _B                                 filtro
     000000F5  _B_5                               _gptrget
     000000F6  G$EIP1$0$0                         filtro
     000000F6  _B_6                               _gptrget
     000000F6  _EIP1                              filtro
     000000F7  G$EIP2$0$0                         filtro
     000000F7  _B_7                               _gptrget
     000000F7  _EIP2                              filtro
     000000F8  G$CAN0CN$0$0                       filtro
     000000F8  G$CANINIT$0$0                      filtro
     000000F8  G$P7$0$0                           filtro
     000000F8  G$P7_0$0$0                         filtro
ASxxxx Linker V03.00 + NoICE + sdld,  page 16.
Hexadecimal  [32-Bits]

Area                                    Addr        Size        Decimal Bytes (Attributes)
--------------------------------        ----        ----        ------- ----- ------------
.  .ABS.                            00000000    00000000 =           0. bytes (ABS,CON)

      Value  Global                              Global Defined In Module
      -----  --------------------------------   ------------------------
     000000F8  G$SPI0CN$0$0                       filtro
     000000F8  G$SPIEN$0$0                        filtro
     000000F8  _CAN0CN                            filtro
     000000F8  _CANINIT                           filtro
     000000F8  _P7                                filtro
     000000F8  _P7_0                              filtro
     000000F8  _SPI0CN                            filtro
     000000F8  _SPIEN                             filtro
     000000F9  G$CANIE$0$0                        filtro
     000000F9  G$P7_1$0$0                         filtro
     000000F9  G$PCA0L$0$0                        filtro
     000000F9  G$TXBMT$0$0                        filtro
     000000F9  _CANIE                             filtro
     000000F9  _P7_1                              filtro
     000000F9  _PCA0L                             filtro
     000000F9  _TXBMT                             filtro
     000000FA  G$CANSIE$0$0                       filtro
     000000FA  G$NSSMD0$0$0                       filtro
     000000FA  G$P7_2$0$0                         filtro
     000000FA  G$PCA0H$0$0                        filtro
     000000FA  _CANSIE                            filtro
     000000FA  _NSSMD0                            filtro
     000000FA  _P7_2                              filtro
     000000FA  _PCA0H                             filtro
     000000FB  G$CANEIE$0$0                       filtro
     000000FB  G$NSSMD1$0$0                       filtro
     000000FB  G$P7_3$0$0                         filtro
     000000FB  G$PCA0CPL0$0$0                     filtro
     000000FB  _CANEIE                            filtro
     000000FB  _NSSMD1                            filtro
     000000FB  _P7_3                              filtro
     000000FB  _PCA0CPL0                          filtro
     000000FC  G$CANIF$0$0                        filtro
     000000FC  G$P7_4$0$0                         filtro
     000000FC  G$PCA0CPH0$0$0                     filtro
     000000FC  G$RXOVRN$0$0                       filtro
     000000FC  _CANIF                             filtro
     000000FC  _P7_4                              filtro
     000000FC  _PCA0CPH0                          filtro
     000000FC  _RXOVRN                            filtro
     000000FD  G$CANDAR$0$0                       filtro
     000000FD  G$MODF$0$0                         filtro
     000000FD  G$P7_5$0$0                         filtro
     000000FD  G$PCA0CPL1$0$0                     filtro
     000000FD  _CANDAR                            filtro
     000000FD  _MODF                              filtro
     000000FD  _P7_5                              filtro
     000000FD  _PCA0CPL1                          filtro
     000000FE  G$CANCCE$0$0                       filtro
     000000FE  G$P7_6$0$0                         filtro
     000000FE  G$PCA0CPH1$0$0                     filtro
ASxxxx Linker V03.00 + NoICE + sdld,  page 17.
Hexadecimal  [32-Bits]

Area                                    Addr        Size        Decimal Bytes (Attributes)
--------------------------------        ----        ----        ------- ----- ------------
.  .ABS.                            00000000    00000000 =           0. bytes (ABS,CON)

      Value  Global                              Global Defined In Module
      -----  --------------------------------   ------------------------
     000000FE  G$WCOL$0$0                         filtro
     000000FE  _CANCCE                            filtro
     000000FE  _P7_6                              filtro
     000000FE  _PCA0CPH1                          filtro
     000000FE  _WCOL                              filtro
     000000FF  G$CANTEST$0$0                      filtro
     000000FF  G$P7_7$0$0                         filtro
     000000FF  G$SPIF$0$0                         filtro
     000000FF  G$WDTCN$0$0                        filtro
     000000FF  _CANTEST                           filtro
     000000FF  _P7_7                              filtro
     000000FF  _SPIF                              filtro
     000000FF  _WDTCN                             filtro
     00008382  G$DP$0$0                           filtro
     00008382  _DP                                filtro
     0000BFBE  G$ADC0$0$0                         filtro
     0000BFBE  _ADC0                              filtro
     0000C5C4  G$ADC0GT$0$0                       filtro
     0000C5C4  _ADC0GT                            filtro
     0000C7C6  G$ADC0LT$0$0                       filtro
     0000C7C6  _ADC0LT                            filtro
     0000CBCA  G$RCAP2$0$0                        filtro
     0000CBCA  G$RCAP3$0$0                        filtro
     0000CBCA  G$RCAP4$0$0                        filtro
     0000CBCA  _RCAP2                             filtro
     0000CBCA  _RCAP3                             filtro
     0000CBCA  _RCAP4                             filtro
     0000CDCC  G$TMR2$0$0                         filtro
     0000CDCC  G$TMR3$0$0                         filtro
     0000CDCC  G$TMR4$0$0                         filtro
     0000CDCC  _TMR2                              filtro
     0000CDCC  _TMR3                              filtro
     0000CDCC  _TMR4                              filtro
     0000D3D2  G$DAC0$0$0                         filtro
     0000D3D2  G$DAC1$0$0                         filtro
     0000D3D2  _DAC0                              filtro
     0000D3D2  _DAC1                              filtro
     0000D9D8  G$CAN0DAT$0$0                      filtro
     0000D9D8  _CAN0DAT                           filtro
     0000E2E1  G$PCA0CP5$0$0                      filtro
     0000E2E1  _PCA0CP5                           filtro
     0000EAE9  G$PCA0CP2$0$0                      filtro
     0000EAE9  _PCA0CP2                           filtro
     0000ECEB  G$PCA0CP3$0$0                      filtro
     0000ECEB  _PCA0CP3                           filtro
     0000EEED  G$PCA0CP4$0$0                      filtro
     0000EEED  _PCA0CP4                           filtro
     0000FAF9  G$PCA0$0$0                         filtro
     0000FAF9  _PCA0                              filtro
     0000FCFB  G$PCA0CP0$0$0                      filtro
     0000FCFB  _PCA0CP0                           filtro
ASxxxx Linker V03.00 + NoICE + sdld,  page 18.
Hexadecimal  [32-Bits]

Area                                    Addr        Size        Decimal Bytes (Attributes)
--------------------------------        ----        ----        ------- ----- ------------
.  .ABS.                            00000000    00000000 =           0. bytes (ABS,CON)

      Value  Global                              Global Defined In Module
      -----  --------------------------------   ------------------------
     0000FEFD  G$PCA0CP1$0$0                      filtro
     0000FEFD  _PCA0CP1                           filtro

ASxxxx Linker V03.00 + NoICE + sdld,  page 19.
Hexadecimal  [32-Bits]

Area                                    Addr        Size        Decimal Bytes (Attributes)
--------------------------------        ----        ----        ------- ----- ------------
BSEG_BYTES                          00000020    00000003 =           3. bytes (REL,CON)

      Value  Global                              Global Defined In Module
      -----  --------------------------------   ------------------------
ASxxxx Linker V03.00 + NoICE + sdld,  page 20.
Hexadecimal  [32-Bits]

Area                                    Addr        Size        Decimal Bytes (Attributes)
--------------------------------        ----        ----        ------- ----- ------------
REG_BANK_0                          00000000    00000008 =           8. bytes (REL,OVR)

      Value  Global                              Global Defined In Module
      -----  --------------------------------   ------------------------
ASxxxx Linker V03.00 + NoICE + sdld,  page 21.
Hexadecimal  [32-Bits]

Area                                    Addr        Size        Decimal Bytes (Attributes)
--------------------------------        ----        ----        ------- ----- ------------
DSEG                                00000000    0000007E =         126. bytes (REL,CON)

      Value  Global                              Global Defined In Module
      -----  --------------------------------   ------------------------
     00000008  G$tempo_us$0$0                     util
     00000008  _tempo_us                          util
     0000000A  G$uart0_data$0$0                   uart0
     0000000A  _uart0_data                        uart0
     0000000B  Lglcd.putchar$coluna$1$71          glcd
     0000000C  Lglcd.escala_glcd$lim_inf$1$77     glcd
     0000000C  _escala_glcd_PARM_2                glcd
     00000010  Lglcd.escala_glcd$lim_sup$1$77     glcd
     00000010  _escala_glcd_PARM_3                glcd
     00000014  Lglcd.ponto_glcd$ver$1$79          glcd
     00000014  _ponto_glcd_PARM_2                 glcd
     00000015  G$nova_amostra$0$0                 adc
     00000015  _nova_amostra                      adc
     00000017  Ladc.config_adc0$ganho$1$12        adc
     00000017  _config_adc0_PARM_2                adc
     00000018  G$eeprom_idx$0$0                   eeprom
     00000018  _eeprom_idx                        eeprom
     00000019  Leeprom.esc_eeprom$dado$1$29       eeprom
     00000019  _esc_eeprom_PARM_2                 eeprom
     0000001A  Fbuzzer$tempo_inicial$0$0          buzzer
     00000023  G$buffer_idx$0$0                   filtro
     00000023  _buffer_idx                        filtro
     00000024  G$signal_sum$0$0                   filtro
     00000024  _signal_sum                        filtro
     00000028  Lfiltro.guarda_buffer$sloc0$1$0    filtro
     0000002A  Lfiltro.limites_amostras$min$1$1   filtro
     0000002A  _limites_amostras_PARM_2           filtro
     0000002D  Lfiltro.limites_amostras$max$1$1   filtro
     0000002D  _limites_amostras_PARM_3           filtro
     00000030  Lfiltro.limites_amostras$amostra   filtro
     00000034  Lfiltro.limites_amostras$sloc0$1   filtro
     00000037  Lfiltro.limites_amostras$sloc1$1   filtro

ASxxxx Linker V03.00 + NoICE + sdld,  page 22.
Hexadecimal  [32-Bits]

Area                                    Addr        Size        Decimal Bytes (Attributes)
--------------------------------        ----        ----        ------- ----- ------------
OSEG                                0000001C    00000002 =           2. bytes (REL,OVR)

      Value  Global                              Global Defined In Module
      -----  --------------------------------   ------------------------
     0000001C  __gptrput_PARM_2                   _gptrput
     0000001C  __modsint_PARM_2                   _moduint
     0000001C  __moduint_PARM_2                   _moduint
     0000001C  __mulint_PARM_2                    _mulint

ASxxxx Linker V03.00 + NoICE + sdld,  page 23.
Hexadecimal  [32-Bits]

Area                                    Addr        Size        Decimal Bytes (Attributes)
--------------------------------        ----        ----        ------- ----- ------------
SSEG                                0000003A    000000C6 =         198. bytes (REL,OVR)

      Value  Global                              Global Defined In Module
      -----  --------------------------------   ------------------------
     0000003A  __start__stack                     main

ASxxxx Linker V03.00 + NoICE + sdld,  page 24.
Hexadecimal  [32-Bits]

Area                                    Addr        Size        Decimal Bytes (Attributes)
--------------------------------        ----        ----        ------- ----- ------------
XISEG                               00000001    00000400 =        1024. bytes (REL,CON,XDATA)

      Value  Global                              Global Defined In Module
      -----  --------------------------------   ------------------------
D:   00000001  G$buffer$0$0                       filtro
D:   00000001  _buffer                            filtro

ASxxxx Linker V03.00 + NoICE + sdld,  page 25.
Hexadecimal  [32-Bits]

Area                                    Addr        Size        Decimal Bytes (Attributes)
--------------------------------        ----        ----        ------- ----- ------------
HOME                                00000000    00000089 =         137. bytes (REL,CON,CODE)

      Value  Global                              Global Defined In Module
      -----  --------------------------------   ------------------------
C:   00000000  A$main$1264                        main
C:   00000003  A$main$1265                        main
C:   0000000B  A$main$1267                        main
C:   00000013  A$main$1269                        main
C:   0000001B  A$main$1271                        main
C:   00000023  A$main$1273                        main
C:   0000002B  A$main$1275                        main
C:   00000033  A$main$1277                        main
C:   0000003B  A$main$1279                        main
C:   00000043  A$main$1281                        main
C:   0000004B  A$main$1283                        main
C:   00000053  A$main$1285                        main
C:   0000005B  A$main$1287                        main
C:   00000063  A$main$1289                        main
C:   0000006B  A$main$1291                        main
C:   00000073  A$main$1293                        main
C:   0000007B  A$main$1295                        main
C:   00000083  A$main$1297                        main
C:   00000086  A$main$1328                        main
C:   00000086  __sdcc_program_startup             main

ASxxxx Linker V03.00 + NoICE + sdld,  page 26.
Hexadecimal  [32-Bits]

Area                                    Addr        Size        Decimal Bytes (Attributes)
--------------------------------        ----        ----        ------- ----- ------------
GSINIT0                             00000089    00000003 =           3. bytes (REL,CON,CODE)

      Value  Global                              Global Defined In Module
      -----  --------------------------------   ------------------------
C:   00000089  __sdcc_gsinit_startup              

ASxxxx Linker V03.00 + NoICE + sdld,  page 27.
Hexadecimal  [32-Bits]

Area                                    Addr        Size        Decimal Bytes (Attributes)
--------------------------------        ----        ----        ------- ----- ------------
GSINIT2                             0000008C    0000000A =          10. bytes (REL,CON,CODE)

      Value  Global                              Global Defined In Module
      -----  --------------------------------   ------------------------
ASxxxx Linker V03.00 + NoICE + sdld,  page 28.
Hexadecimal  [32-Bits]

Area                                    Addr        Size        Decimal Bytes (Attributes)
--------------------------------        ----        ----        ------- ----- ------------
GSINIT3                             00000096    00000022 =          34. bytes (REL,CON,CODE)

      Value  Global                              Global Defined In Module
      -----  --------------------------------   ------------------------
C:   00000096  __mcs51_genXINIT                   

ASxxxx Linker V03.00 + NoICE + sdld,  page 29.
Hexadecimal  [32-Bits]

Area                                    Addr        Size        Decimal Bytes (Attributes)
--------------------------------        ----        ----        ------- ----- ------------
GSINIT4                             000000B8    0000002A =          42. bytes (REL,CON,CODE)

      Value  Global                              Global Defined In Module
      -----  --------------------------------   ------------------------
C:   000000B8  __mcs51_genRAMCLEAR                
C:   000000BE  __mcs51_genXRAMCLEAR               

ASxxxx Linker V03.00 + NoICE + sdld,  page 30.
Hexadecimal  [32-Bits]

Area                                    Addr        Size        Decimal Bytes (Attributes)
--------------------------------        ----        ----        ------- ----- ------------
GSINIT                              000000E2    0000002E =          46. bytes (REL,CON,CODE)

      Value  Global                              Global Defined In Module
      -----  --------------------------------   ------------------------
C:   000000E2  A$main$1313                        main
C:   000000E2  C$main.c$16$1$63                   main
C:   000000E4  A$main$1316                        main
C:   000000E4  C$main.c$17$1$63                   main
C:   000000E6  A$main$1319                        main
C:   000000E6  C$main.c$18$1$63                   main
C:   000000E8  A$util$1234                        util
C:   000000E8  C$util.c$4$1$21                    util
C:   000000E9  A$util$1235                        util
C:   000000EB  A$util$1236                        util
C:   000000ED  A$uart0$1237                       uart0
C:   000000ED  C$uart0.c$6$1$21                   uart0
C:   000000F0  A$uart0$1240                       uart0
C:   000000F0  C$uart0.c$5$1$21                   uart0
C:   000000F2  A$glcd$1296                        glcd
C:   000000F2  C$glcd.c$127$1$71                  glcd
C:   000000F5  A$adc$1241                         adc
C:   000000F5  C$adc.c$5$1$18                     adc
C:   000000F6  A$adc$1242                         adc
C:   000000F8  A$adc$1243                         adc
C:   000000FA  A$adc$1246                         adc
C:   000000FA  C$adc.c$6$1$18                     adc
C:   000000FC  A$eeprom$1252                      eeprom
C:   000000FC  C$eeprom.c$9$1$35                  eeprom
C:   000000FF  A$buzzer$1232                      buzzer
C:   000000FF  C$buzzer.c$8$1$24                  buzzer
C:   00000100  A$buzzer$1233                      buzzer
C:   00000102  A$buzzer$1234                      buzzer
C:   00000104  A$filtro$1258                      filtro
C:   00000104  C$filtro.c$7$1$11                  filtro
C:   00000107  A$filtro$1261                      filtro
C:   00000107  C$filtro.c$8$1$11                  filtro
C:   00000108  A$filtro$1262                      filtro
C:   0000010A  A$filtro$1263                      filtro
C:   0000010C  A$filtro$1264                      filtro
C:   0000010E  A$filtro$1265                      filtro
ASxxxx Linker V03.00 + NoICE + sdld,  page 31.
Hexadecimal  [32-Bits]

Area                                    Addr        Size        Decimal Bytes (Attributes)
--------------------------------        ----        ----        ------- ----- ------------
GSFINAL                             00000110    00000003 =           3. bytes (REL,CON,CODE)

      Value  Global                              Global Defined In Module
      -----  --------------------------------   ------------------------
C:   00000110  A$main$1321                        main

ASxxxx Linker V03.00 + NoICE + sdld,  page 32.
Hexadecimal  [32-Bits]

Area                                    Addr        Size        Decimal Bytes (Attributes)
--------------------------------        ----        ----        ------- ----- ------------
CSEG                                00000113    00001083 =        4227. bytes (REL,CON,CODE)

      Value  Global                              Global Defined In Module
      -----  --------------------------------   ------------------------
C:   00000113  A$main$1354                        main
C:   00000113  C$config.c$10$0$0                  main
C:   00000113  C$config.c$12$1$47                 main
C:   00000113  G$Timer_Init$0$0                   main
C:   00000113  _Timer_Init                        main
C:   00000116  A$main$1357                        main
C:   00000116  C$config.c$13$1$47                 main
C:   00000119  A$main$1360                        main
C:   00000119  C$config.c$14$1$47                 main
C:   0000011C  A$main$1363                        main
C:   0000011C  C$config.c$15$1$47                 main
C:   0000011F  A$main$1366                        main
C:   0000011F  C$config.c$16$1$47                 main
C:   00000122  A$main$1369                        main
C:   00000122  C$config.c$17$1$47                 main
C:   00000125  A$main$1372                        main
C:   00000125  C$config.c$18$1$47                 main
C:   00000128  A$main$1375                        main
C:   00000128  C$config.c$19$1$47                 main
C:   0000012B  A$main$1378                        main
C:   0000012B  C$config.c$20$1$47                 main
C:   0000012E  A$main$1381                        main
C:   0000012E  C$config.c$21$1$47                 main
C:   00000131  A$main$1384                        main
C:   00000131  C$config.c$22$1$47                 main
C:   00000134  A$main$1387                        main
C:   00000134  C$config.c$23$1$47                 main
C:   00000137  A$main$1390                        main
C:   00000137  C$config.c$24$1$47                 main
C:   0000013A  A$main$1393                        main
C:   0000013A  C$config.c$25$1$47                 main
C:   0000013D  A$main$1396                        main
C:   0000013D  C$config.c$26$1$47                 main
C:   00000140  A$main$1399                        main
C:   00000140  C$config.c$27$1$47                 main
C:   00000143  A$main$1402                        main
C:   00000143  C$config.c$28$1$47                 main
C:   00000146  A$main$1405                        main
C:   00000146  C$config.c$29$1$47                 main
C:   00000149  A$main$1408                        main
C:   00000149  C$config.c$30$1$47                 main
C:   0000014C  A$main$1411                        main
C:   0000014C  C$config.c$31$1$47                 main
C:   0000014F  A$main$1414                        main
C:   0000014F  C$config.c$32$1$47                 main
C:   0000014F  XG$Timer_Init$0$0                  main
C:   00000150  A$main$1427                        main
C:   00000150  C$config.c$34$1$47                 main
C:   00000150  C$config.c$36$1$48                 main
C:   00000150  G$UART_Init$0$0                    main
ASxxxx Linker V03.00 + NoICE + sdld,  page 33.
Hexadecimal  [32-Bits]

Area                                    Addr        Size        Decimal Bytes (Attributes)
--------------------------------        ----        ----        ------- ----- ------------
CSEG                                00000113    00001083 =        4227. bytes (REL,CON,CODE)

      Value  Global                              Global Defined In Module
      -----  --------------------------------   ------------------------
C:   00000150  _UART_Init                         main
C:   00000153  A$main$1430                        main
C:   00000153  C$config.c$37$1$48                 main
C:   00000156  A$main$1433                        main
C:   00000156  C$config.c$38$1$48                 main
C:   00000156  XG$UART_Init$0$0                   main
C:   00000157  A$main$1446                        main
C:   00000157  C$config.c$40$1$48                 main
C:   00000157  C$config.c$42$1$49                 main
C:   00000157  G$SMBus_Init$0$0                   main
C:   00000157  _SMBus_Init                        main
C:   0000015A  A$main$1449                        main
C:   0000015A  C$config.c$43$1$49                 main
C:   0000015D  A$main$1452                        main
C:   0000015D  C$config.c$44$1$49                 main
C:   00000160  A$main$1455                        main
C:   00000160  C$config.c$45$1$49                 main
C:   00000160  XG$SMBus_Init$0$0                  main
C:   00000161  A$main$1468                        main
C:   00000161  C$config.c$47$1$49                 main
C:   00000161  C$config.c$49$1$50                 main
C:   00000161  G$ADC_Init$0$0                     main
C:   00000161  _ADC_Init                          main
C:   00000164  A$main$1471                        main
C:   00000164  C$config.c$50$1$50                 main
C:   00000167  A$main$1474                        main
C:   00000167  C$config.c$51$1$50                 main
C:   0000016A  A$main$1477                        main
C:   0000016A  C$config.c$52$1$50                 main
C:   0000016D  A$main$1480                        main
C:   0000016D  C$config.c$53$1$50                 main
C:   0000016D  XG$ADC_Init$0$0                    main
C:   0000016E  A$main$1493                        main
C:   0000016E  C$config.c$55$1$50                 main
C:   0000016E  C$config.c$57$1$51                 main
C:   0000016E  G$Voltage_Reference_Init$0$0       main
C:   0000016E  _Voltage_Reference_Init            main
C:   00000171  A$main$1496                        main
C:   00000171  C$config.c$58$1$51                 main
C:   00000174  A$main$1499                        main
C:   00000174  C$config.c$59$1$51                 main
C:   00000174  XG$Voltage_Reference_Init$0$0      main
C:   00000175  A$main$1512                        main
C:   00000175  C$config.c$61$1$51                 main
C:   00000175  C$config.c$99$1$52                 main
C:   00000175  G$Port_IO_Init$0$0                 main
C:   00000175  _Port_IO_Init                      main
C:   00000178  A$main$1515                        main
C:   00000178  C$config.c$100$1$52                main
C:   0000017B  A$main$1518                        main
C:   0000017B  C$config.c$101$1$52                main
ASxxxx Linker V03.00 + NoICE + sdld,  page 34.
Hexadecimal  [32-Bits]

Area                                    Addr        Size        Decimal Bytes (Attributes)
--------------------------------        ----        ----        ------- ----- ------------
CSEG                                00000113    00001083 =        4227. bytes (REL,CON,CODE)

      Value  Global                              Global Defined In Module
      -----  --------------------------------   ------------------------
C:   0000017E  A$main$1521                        main
C:   0000017E  C$config.c$102$1$52                main
C:   00000181  A$main$1524                        main
C:   00000181  C$config.c$103$1$52                main
C:   00000184  A$main$1527                        main
C:   00000184  C$config.c$104$1$52                main
C:   00000184  XG$Port_IO_Init$0$0                main
C:   00000185  A$main$1542                        main
C:   00000185  C$config.c$106$1$52                main
C:   00000185  C$config.c$109$1$53                main
C:   00000185  G$Oscillator_Init$0$0              main
C:   00000185  _Oscillator_Init                   main
C:   00000188  A$main$1545                        main
C:   00000188  C$config.c$110$1$53                main
C:   0000018B  A$main$1548                        main
C:   0000018B  C$config.c$111$1$53                main
C:   0000018D  A$main$1549                        main
C:   0000018F  A$main$1551                        main
C:   00000190  A$main$1552                        main
C:   00000192  A$main$1553                        main
C:   00000193  A$main$1554                        main
C:   00000194  A$main$1555                        main
C:   00000196  A$main$1556                        main
C:   00000197  A$main$1557                        main
C:   00000199  A$main$1558                        main
C:   0000019B  A$main$1559                        main
C:   0000019C  A$main$1560                        main
C:   0000019D  A$main$1561                        main
C:   0000019F  A$main$1565                        main
C:   0000019F  C$config.c$112$1$53                main
C:   000001A1  A$main$1566                        main
C:   000001A4  A$main$1569                        main
C:   000001A4  C$config.c$113$1$53                main
C:   000001A7  A$main$1572                        main
C:   000001A7  C$config.c$114$1$53                main
C:   000001A7  XG$Oscillator_Init$0$0             main
C:   000001A8  A$main$1585                        main
C:   000001A8  C$config.c$116$1$53                main
C:   000001A8  C$config.c$118$1$54                main
C:   000001A8  G$Interrupts_Init$0$0              main
C:   000001A8  _Interrupts_Init                   main
C:   000001AB  A$main$1588                        main
C:   000001AB  C$config.c$119$1$54                main
C:   000001AE  A$main$1591                        main
C:   000001AE  C$config.c$120$1$54                main
C:   000001AE  XG$Interrupts_Init$0$0             main
C:   000001AF  A$main$1604                        main
C:   000001AF  C$config.c$124$1$54                main
C:   000001AF  C$config.c$126$1$56                main
C:   000001AF  G$Init_Device$0$0                  main
C:   000001AF  _Init_Device                       main
ASxxxx Linker V03.00 + NoICE + sdld,  page 35.
Hexadecimal  [32-Bits]

Area                                    Addr        Size        Decimal Bytes (Attributes)
--------------------------------        ----        ----        ------- ----- ------------
CSEG                                00000113    00001083 =        4227. bytes (REL,CON,CODE)

      Value  Global                              Global Defined In Module
      -----  --------------------------------   ------------------------
C:   000001B2  A$main$1607                        main
C:   000001B2  C$config.c$127$1$56                main
C:   000001B5  A$main$1610                        main
C:   000001B5  C$config.c$128$1$56                main
C:   000001B8  A$main$1613                        main
C:   000001B8  C$config.c$129$1$56                main
C:   000001BB  A$main$1616                        main
C:   000001BB  C$config.c$130$1$56                main
C:   000001BE  A$main$1619                        main
C:   000001BE  C$config.c$131$1$56                main
C:   000001C1  A$main$1622                        main
C:   000001C1  C$config.c$132$1$56                main
C:   000001C4  A$main$1625                        main
C:   000001C4  C$config.c$133$1$56                main
C:   000001C7  A$main$1628                        main
C:   000001C7  C$config.c$134$1$56                main
C:   000001C7  XG$Init_Device$0$0                 main
C:   000001C8  A$main$1644                        main
C:   000001C8  C$main.c$20$1$56                   main
C:   000001C8  C$main.c$21$1$56                   main
C:   000001C8  G$backup_dados$0$0                 main
C:   000001C8  _backup_dados                      main
C:   000001CA  A$main$1647                        main
C:   000001CA  C$main.c$22$1$56                   main
C:   000001CC  A$main$1653                        main
C:   000001CC  C$main.c$23$1$58                   main
C:   000001CC  C$main.c$24$2$59                   main
C:   000001CE  A$main$1654                        main
C:   000001D0  A$main$1655                        main
C:   000001D2  A$main$1656                        main
C:   000001D4  A$main$1657                        main
C:   000001D5  A$main$1658                        main
C:   000001D8  A$main$1660                        main
C:   000001DA  A$main$1661                        main
C:   000001DC  A$main$1662                        main
C:   000001DF  A$main$1663                        main
C:   000001E1  A$main$1664                        main
C:   000001E3  A$main$1667                        main
C:   000001E3  C$main.c$25$2$59                   main
C:   000001E5  A$main$1668                        main
C:   000001E7  A$main$1669                        main
C:   000001EA  A$main$1670                        main
C:   000001ED  A$main$1671                        main
C:   000001EF  A$main$1672                        main
C:   000001F1  A$main$1675                        main
C:   000001F1  C$main.c$26$1$58                   main
C:   000001F2  A$main$1676                        main
C:   000001F5  A$main$1679                        main
C:   000001F5  C$main.c$27$1$58                   main
C:   000001F5  XG$backup_dados$0$0                main
C:   000001F6  A$main$1692                        main
ASxxxx Linker V03.00 + NoICE + sdld,  page 36.
Hexadecimal  [32-Bits]

Area                                    Addr        Size        Decimal Bytes (Attributes)
--------------------------------        ----        ----        ------- ----- ------------
CSEG                                00000113    00001083 =        4227. bytes (REL,CON,CODE)

      Value  Global                              Global Defined In Module
      -----  --------------------------------   ------------------------
C:   000001F6  C$main.c$29$1$58                   main
C:   000001F6  C$main.c$30$1$61                   main
C:   000001F6  G$setup$0$0                        main
C:   000001F6  _setup                             main
C:   000001F9  A$main$1695                        main
C:   000001F9  C$main.c$31$1$61                   main
C:   000001FC  A$main$1698                        main
C:   000001FC  C$main.c$32$1$61                   main
C:   000001FF  A$main$1701                        main
C:   000001FF  C$main.c$33$1$61                   main
C:   00000202  A$main$1704                        main
C:   00000202  C$main.c$34$1$61                   main
C:   00000205  A$main$1705                        main
C:   00000208  A$main$1706                        main
C:   0000020B  A$main$1709                        main
C:   0000020B  C$main.c$35$1$61                   main
C:   0000020B  XG$setup$0$0                       main
C:   0000020C  A$main$1726                        main
C:   0000020C  C$main.c$37$1$61                   main
C:   0000020C  C$main.c$39$1$61                   main
C:   0000020C  G$main$0$0                         main
C:   0000020C  _main                              main
C:   0000020E  A$main$1729                        main
C:   0000020E  C$main.c$40$1$63                   main
C:   00000210  A$main$1730                        main
C:   00000213  A$main$1733                        main
C:   00000213  C$main.c$41$1$63                   main
C:   00000216  A$main$1736                        main
C:   00000216  C$main.c$42$1$63                   main
C:   00000219  A$main$1737                        main
C:   0000021B  A$main$1743                        main
C:   0000021B  C$main.c$44$1$63                   main
C:   0000021B  C$main.c$45$2$64                   main
C:   0000021E  A$main$1746                        main
C:   0000021E  C$main.c$46$3$65                   main
C:   00000220  A$main$1747                        main
C:   00000223  A$main$1748                        main
C:   00000225  A$main$1752                        main
C:   00000225  C$main.c$48$2$64                   main
C:   00000228  A$main$1757                        main
C:   00000228  C$main.c$49$3$66                   main
C:   00000228  C$main.c$50$4$67                   main
C:   0000022B  A$main$1758                        main
C:   0000022D  A$main$1762                        main
C:   0000022D  C$main.c$51$4$67                   main
C:   00000230  A$main$1765                        main
C:   00000230  C$main.c$52$4$67                   main
C:   00000232  A$main$1769                        main
C:   00000232  C$main.c$54$3$66                   main
C:   00000234  A$main$1770                        main
C:   00000237  A$main$1771                        main
ASxxxx Linker V03.00 + NoICE + sdld,  page 37.
Hexadecimal  [32-Bits]

Area                                    Addr        Size        Decimal Bytes (Attributes)
--------------------------------        ----        ----        ------- ----- ------------
CSEG                                00000113    00001083 =        4227. bytes (REL,CON,CODE)

      Value  Global                              Global Defined In Module
      -----  --------------------------------   ------------------------
C:   00000239  A$main$1775                        main
C:   00000239  C$main.c$56$2$64                   main
C:   0000023C  A$main$1778                        main
C:   0000023C  C$main.c$57$3$68                   main
C:   0000023E  A$main$1781                        main
C:   0000023E  C$main.c$58$3$68                   main
C:   00000240  A$main$1782                        main
C:   00000243  A$main$1783                        main
C:   00000245  A$main$1787                        main
C:   00000245  C$main.c$60$2$64                   main
C:   00000248  A$main$1790                        main
C:   00000248  C$main.c$61$3$69                   main
C:   0000024A  A$main$1791                        main
C:   0000024D  A$main$1792                        main
C:   0000024F  A$main$1798                        main
C:   0000024F  C$main.c$63$2$64                   main
C:   0000024F  C$main.c$64$3$70                   main
C:   00000252  A$main$1799                        main
C:   00000254  A$main$1803                        main
C:   00000254  C$main.c$65$3$70                   main
C:   00000256  A$main$1804                        main
C:   00000259  A$main$1807                        main
C:   00000259  C$main.c$67$4$71                   main
C:   0000025B  A$main$1808                        main
C:   0000025E  A$main$1809                        main
C:   00000260  A$main$1817                        main
C:   00000260  C$main.c$70$2$64                   main
C:   00000260  C$main.c$72$2$64                   main
C:   00000260  C$main.c$73$3$72                   main
C:   00000263  A$main$1818                        main
C:   00000265  A$main$1822                        main
C:   00000265  C$main.c$74$3$72                   main
C:   00000268  A$main$1823                        main
C:   0000026B  A$main$1824                        main
C:   0000026D  A$main$1825                        main
C:   00000270  A$main$1828                        main
C:   00000270  C$main.c$75$3$72                   main
C:   00000273  A$main$1829                        main
C:   00000276  A$main$1830                        main
C:   00000279  A$main$1831                        main
C:   0000027B  A$main$1834                        main
C:   0000027B  C$main.c$76$3$72                   main
C:   0000027E  A$main$1837                        main
C:   0000027E  C$main.c$77$4$73                   main
C:   00000280  A$main$1838                        main
C:   00000282  A$main$1839                        main
C:   00000285  A$main$1842                        main
C:   00000285  C$main.c$78$1$63                   main
C:   00000288  A$main$1843                        main
C:   0000028B  A$main$1844                        main
C:   0000028E  A$main$1845                        main
ASxxxx Linker V03.00 + NoICE + sdld,  page 38.
Hexadecimal  [32-Bits]

Area                                    Addr        Size        Decimal Bytes (Attributes)
--------------------------------        ----        ----        ------- ----- ------------
CSEG                                00000113    00001083 =        4227. bytes (REL,CON,CODE)

      Value  Global                              Global Defined In Module
      -----  --------------------------------   ------------------------
C:   00000290  A$main$1846                        main
C:   00000292  A$main$1847                        main
C:   00000294  A$main$1848                        main
C:   00000295  A$main$1849                        main
C:   00000298  A$main$1850                        main
C:   0000029B  A$main$1851                        main
C:   0000029E  A$main$1852                        main
C:   000002A1  A$main$1853                        main
C:   000002A4  A$main$1854                        main
C:   000002A7  A$main$1855                        main
C:   000002AA  A$main$1856                        main
C:   000002AD  A$main$1857                        main
C:   000002AF  A$main$1858                        main
C:   000002B1  A$main$1859                        main
C:   000002B3  A$main$1860                        main
C:   000002B4  A$main$1861                        main
C:   000002B7  A$main$1862                        main
C:   000002BA  A$main$1863                        main
C:   000002BC  A$main$1864                        main
C:   000002BE  A$main$1865                        main
C:   000002C0  A$main$1866                        main
C:   000002C3  A$main$1867                        main
C:   000002C5  A$main$1870                        main
C:   000002C5  C$main.c$79$4$73                   main
C:   000002C7  A$main$1871                        main
C:   000002C9  A$main$1872                        main
C:   000002CB  A$main$1873                        main
C:   000002CD  A$main$1874                        main
C:   000002CE  A$main$1875                        main
C:   000002D1  A$main$1877                        main
C:   000002D3  A$main$1878                        main
C:   000002D6  A$main$1879                        main
C:   000002D8  A$main$1880                        main
C:   000002DA  A$main$1881                        main
C:   000002DC  A$main$1885                        main
C:   000002DC  C$main.c$82$2$64                   main
C:   000002DE  A$main$1886                        main
C:   000002E1  A$main$1889                        main
C:   000002E1  C$main.c$83$2$64                   main
C:   000002E4  A$main$1890                        main
C:   000002E6  A$main$1891                        main
C:   000002E9  A$main$1894                        main
C:   000002E9  C$main.c$85$1$63                   main
C:   000002E9  XG$main$0$0                        main
C:   000002EA  A$util$1266                        util
C:   000002EA  C$util.c$6$0$0                     util
C:   000002EA  C$util.c$7$1$11                    util
C:   000002EA  G$reset_wdt$0$0                    util
C:   000002EA  _reset_wdt                         util
C:   000002ED  A$util$1269                        util
C:   000002ED  C$util.c$8$1$11                    util
ASxxxx Linker V03.00 + NoICE + sdld,  page 39.
Hexadecimal  [32-Bits]

Area                                    Addr        Size        Decimal Bytes (Attributes)
--------------------------------        ----        ----        ------- ----- ------------
CSEG                                00000113    00001083 =        4227. bytes (REL,CON,CODE)

      Value  Global                              Global Defined In Module
      -----  --------------------------------   ------------------------
C:   000002ED  XG$reset_wdt$0$0                   util
C:   000002EE  A$util$1282                        util
C:   000002EE  C$util.c$10$1$11                   util
C:   000002EE  C$util.c$11$1$13                   util
C:   000002EE  G$config_tc0$0$0                   util
C:   000002EE  _config_tc0                        util
C:   000002F1  A$util$1285                        util
C:   000002F1  C$util.c$12$1$13                   util
C:   000002F4  A$util$1288                        util
C:   000002F4  C$util.c$14$1$13                   util
C:   000002F6  A$util$1291                        util
C:   000002F6  C$util.c$15$1$13                   util
C:   000002F8  A$util$1294                        util
C:   000002F8  C$util.c$16$1$13                   util
C:   000002FB  A$util$1297                        util
C:   000002FB  C$util.c$17$1$13                   util
C:   000002FE  A$util$1300                        util
C:   000002FE  C$util.c$18$1$13                   util
C:   00000300  A$util$1303                        util
C:   00000300  C$util.c$19$1$13                   util
C:   00000302  A$util$1306                        util
C:   00000302  C$util.c$20$1$13                   util
C:   00000302  XG$config_tc0$0$0                  util
C:   00000303  A$util$1319                        util
C:   00000303  C$util.c$22$1$13                   util
C:   00000303  G$delay_ms$0$0                     util
C:   00000303  _delay_ms                          util
C:   00000305  A$util$1320                        util
C:   00000307  A$util$1324                        util
C:   00000308  A$util$1325                        util
C:   00000309  A$util$1326                        util
C:   0000030B  A$util$1329                        util
C:   0000030B  C$util.c$24$2$16                   util
C:   0000030E  A$util$1330                        util
C:   00000310  A$util$1331                        util
C:   00000312  A$util$1332                        util
C:   00000315  A$util$1333                        util
C:   00000317  A$util$1334                        util
C:   00000319  A$util$1337                        util
C:   00000319  C$util.c$23$1$15                   util
C:   0000031A  A$util$1338                        util
C:   0000031D  A$util$1339                        util
C:   0000031E  A$util$1341                        util
C:   00000320  A$util$1345                        util
C:   00000320  C$util.c$26$1$15                   util
C:   00000320  XG$delay_ms$0$0                    util
C:   00000321  A$util$1359                        util
C:   00000321  C$util.c$28$1$15                   util
C:   00000321  G$delay_us$0$0                     util
C:   00000321  _delay_us                          util
C:   00000323  A$util$1360                        util
ASxxxx Linker V03.00 + NoICE + sdld,  page 40.
Hexadecimal  [32-Bits]

Area                                    Addr        Size        Decimal Bytes (Attributes)
--------------------------------        ----        ----        ------- ----- ------------
CSEG                                00000113    00001083 =        4227. bytes (REL,CON,CODE)

      Value  Global                              Global Defined In Module
      -----  --------------------------------   ------------------------
C:   00000325  A$util$1363                        util
C:   00000325  C$util.c$29$1$15                   util
C:   00000327  A$util$1364                        util
C:   00000329  A$util$1368                        util
C:   00000329  C$util.c$30$1$18                   util
C:   0000032B  A$util$1369                        util
C:   0000032C  A$util$1370                        util
C:   0000032D  A$util$1371                        util
C:   0000032E  A$util$1372                        util
C:   00000330  A$util$1373                        util
C:   00000331  A$util$1374                        util
C:   00000332  A$util$1375                        util
C:   00000333  A$util$1376                        util
C:   00000334  A$util$1377                        util
C:   00000335  A$util$1378                        util
C:   00000336  A$util$1379                        util
C:   00000337  A$util$1380                        util
C:   00000339  A$util$1383                        util
C:   00000339  C$util.c$31$1$18                   util
C:   00000339  XG$delay_us$0$0                    util
C:   0000033A  A$util$1394                        util
C:   0000033A  C$util.c$33$1$18                   util
C:   0000033A  G$ISR_TC0$0$0                      util
C:   0000033A  _ISR_TC0                           util
C:   0000033C  A$util$1395                        util
C:   0000033E  A$util$1398                        util
C:   0000033E  C$util.c$34$1$21                   util
C:   00000340  A$util$1399                        util
C:   00000342  A$util$1400                        util
C:   00000344  A$util$1401                        util
C:   00000345  A$util$1402                        util
C:   00000347  A$util$1403                        util
C:   00000349  A$util$1406                        util
C:   00000349  C$util.c$35$1$21                   util
C:   0000034B  A$util$1407                        util
C:   0000034D  A$util$1408                        util
C:   0000034F  A$util$1411                        util
C:   0000034F  C$util.c$36$1$21                   util
C:   0000034F  XG$ISR_TC0$0$0                     util
C:   00000350  A$uart0$1270                       uart0
C:   00000350  C$uart0.c$8$0$0                    uart0
C:   00000350  C$uart0.c$9$1$14                   uart0
C:   00000350  G$enable_uart0$0$0                 uart0
C:   00000350  _enable_uart0                      uart0
C:   00000352  A$uart0$1271                       uart0
C:   00000355  A$uart0$1272                       uart0
C:   00000357  A$uart0$1275                       uart0
C:   00000357  C$uart0.c$10$1$14                  uart0
C:   00000357  XG$enable_uart0$0$0                uart0
C:   00000358  A$uart0$1288                       uart0
C:   00000358  C$uart0.c$12$1$14                  uart0
ASxxxx Linker V03.00 + NoICE + sdld,  page 41.
Hexadecimal  [32-Bits]

Area                                    Addr        Size        Decimal Bytes (Attributes)
--------------------------------        ----        ----        ------- ----- ------------
CSEG                                00000113    00001083 =        4227. bytes (REL,CON,CODE)

      Value  Global                              Global Defined In Module
      -----  --------------------------------   ------------------------
C:   00000358  C$uart0.c$13$1$16                  uart0
C:   00000358  G$disable_uart0$0$0                uart0
C:   00000358  _disable_uart0                     uart0
C:   0000035B  A$uart0$1291                       uart0
C:   0000035B  C$uart0.c$14$1$16                  uart0
C:   0000035B  XG$disable_uart0$0$0               uart0
C:   0000035C  A$uart0$1304                       uart0
C:   0000035C  C$uart0.c$16$1$16                  uart0
C:   0000035C  G$envia_uart0$0$0                  uart0
C:   0000035C  _envia_uart0                       uart0
C:   0000035F  A$uart0$1307                       uart0
C:   0000035F  C$uart0.c$18$1$18                  uart0
C:   00000362  A$uart0$1313                       uart0
C:   00000362  C$uart0.c$19$1$18                  uart0
C:   00000362  C$uart0.c$20$1$18                  uart0
C:   00000365  A$uart0$1314                       uart0
C:   00000367  A$uart0$1318                       uart0
C:   00000367  C$uart0.c$21$1$18                  uart0
C:   00000367  XG$envia_uart0$0$0                 uart0
C:   00000368  A$uart0$1331                       uart0
C:   00000368  C$uart0.c$23$1$18                  uart0
C:   00000368  C$uart0.c$24$1$21                  uart0
C:   00000368  G$ISR_UART0$0$0                    uart0
C:   00000368  _ISR_UART0                         uart0
C:   0000036B  A$uart0$1334                       uart0
C:   0000036B  C$uart0.c$25$2$22                  uart0
C:   0000036D  A$uart0$1337                       uart0
C:   0000036D  C$uart0.c$26$2$22                  uart0
C:   00000370  A$uart0$1340                       uart0
C:   00000370  C$uart0.c$27$2$22                  uart0
C:   00000372  A$uart0$1344                       uart0
C:   00000372  C$uart0.c$29$1$21                  uart0
C:   00000372  XG$ISR_UART0$0$0                   uart0
C:   00000373  A$glcd$1328                        glcd
C:   00000373  C$glcd.c$24$0$0                    glcd
C:   00000373  C$glcd.c$26$1$54                   glcd
C:   00000373  G$le_glcd$0$0                      glcd
C:   00000373  _le_glcd                           glcd
C:   00000375  A$glcd$1331                        glcd
C:   00000375  C$glcd.c$27$1$54                   glcd
C:   00000377  A$glcd$1332                        glcd
C:   00000379  A$glcd$1335                        glcd
C:   00000379  C$glcd.c$28$1$54                   glcd
C:   0000037B  A$glcd$1336                        glcd
C:   0000037C  A$glcd$1337                        glcd
C:   0000037E  A$glcd$1340                        glcd
C:   0000037E  C$glcd.c$29$1$54                   glcd
C:   00000380  A$glcd$1341                        glcd
C:   00000382  A$glcd$1344                        glcd
C:   00000382  C$glcd.c$30$1$54                   glcd
C:   00000383  A$glcd$1345                        glcd
ASxxxx Linker V03.00 + NoICE + sdld,  page 42.
Hexadecimal  [32-Bits]

Area                                    Addr        Size        Decimal Bytes (Attributes)
--------------------------------        ----        ----        ------- ----- ------------
CSEG                                00000113    00001083 =        4227. bytes (REL,CON,CODE)

      Value  Global                              Global Defined In Module
      -----  --------------------------------   ------------------------
C:   00000384  A$glcd$1346                        glcd
C:   00000385  A$glcd$1347                        glcd
C:   00000386  A$glcd$1350                        glcd
C:   00000386  C$glcd.c$31$1$54                   glcd
C:   00000388  A$glcd$1353                        glcd
C:   00000388  C$glcd.c$32$1$54                   glcd
C:   00000389  A$glcd$1354                        glcd
C:   0000038A  A$glcd$1355                        glcd
C:   0000038B  A$glcd$1356                        glcd
C:   0000038C  A$glcd$1357                        glcd
C:   0000038D  A$glcd$1358                        glcd
C:   0000038E  A$glcd$1359                        glcd
C:   0000038F  A$glcd$1360                        glcd
C:   00000390  A$glcd$1363                        glcd
C:   00000390  C$glcd.c$33$1$54                   glcd
C:   00000393  A$glcd$1366                        glcd
C:   00000393  C$glcd.c$34$1$54                   glcd
C:   00000396  A$glcd$1369                        glcd
C:   00000396  C$glcd.c$35$1$54                   glcd
C:   00000399  A$glcd$1372                        glcd
C:   00000399  C$glcd.c$36$1$54                   glcd
C:   0000039A  A$glcd$1373                        glcd
C:   0000039B  A$glcd$1374                        glcd
C:   0000039C  A$glcd$1375                        glcd
C:   0000039D  A$glcd$1378                        glcd
C:   0000039D  C$glcd.c$37$1$54                   glcd
C:   0000039F  A$glcd$1381                        glcd
C:   0000039F  C$glcd.c$38$1$54                   glcd
C:   000003A0  A$glcd$1382                        glcd
C:   000003A1  A$glcd$1383                        glcd
C:   000003A2  A$glcd$1384                        glcd
C:   000003A3  A$glcd$1385                        glcd
C:   000003A4  A$glcd$1386                        glcd
C:   000003A5  A$glcd$1387                        glcd
C:   000003A6  A$glcd$1388                        glcd
C:   000003A7  A$glcd$1389                        glcd
C:   000003A8  A$glcd$1390                        glcd
C:   000003A9  A$glcd$1391                        glcd
C:   000003AA  A$glcd$1392                        glcd
C:   000003AB  A$glcd$1397                        glcd
C:   000003AB  C$glcd.c$39$1$54                   glcd
C:   000003AB  C$glcd.c$40$1$54                   glcd
C:   000003AB  XG$le_glcd$0$0                     glcd
C:   000003AC  A$glcd$1411                        glcd
C:   000003AC  C$glcd.c$42$1$54                   glcd
C:   000003AC  G$esc_glcd$0$0                     glcd
C:   000003AC  _esc_glcd                          glcd
C:   000003AE  A$glcd$1414                        glcd
C:   000003AE  C$glcd.c$45$1$56                   glcd
C:   000003B0  A$glcd$1415                        glcd
C:   000003B3  A$glcd$1416                        glcd
ASxxxx Linker V03.00 + NoICE + sdld,  page 43.
Hexadecimal  [32-Bits]

Area                                    Addr        Size        Decimal Bytes (Attributes)
--------------------------------        ----        ----        ------- ----- ------------
CSEG                                00000113    00001083 =        4227. bytes (REL,CON,CODE)

      Value  Global                              Global Defined In Module
      -----  --------------------------------   ------------------------
C:   000003B5  A$glcd$1422                        glcd
C:   000003B5  C$glcd.c$46$1$56                   glcd
C:   000003B5  C$glcd.c$47$2$57                   glcd
C:   000003B7  A$glcd$1423                        glcd
C:   000003B9  A$glcd$1424                        glcd
C:   000003BB  A$glcd$1425                        glcd
C:   000003BD  A$glcd$1426                        glcd
C:   000003C0  A$glcd$1427                        glcd
C:   000003C2  A$glcd$1428                        glcd
C:   000003C4  A$glcd$1431                        glcd
C:   000003C4  C$glcd.c$48$1$56                   glcd
C:   000003C7  A$glcd$1434                        glcd
C:   000003C7  C$glcd.c$50$1$56                   glcd
C:   000003C9  A$glcd$1437                        glcd
C:   000003C9  C$glcd.c$51$1$56                   glcd
C:   000003CB  A$glcd$1438                        glcd
C:   000003CD  A$glcd$1441                        glcd
C:   000003CD  C$glcd.c$52$1$56                   glcd
C:   000003CF  A$glcd$1442                        glcd
C:   000003D0  A$glcd$1443                        glcd
C:   000003D2  A$glcd$1446                        glcd
C:   000003D2  C$glcd.c$53$1$56                   glcd
C:   000003D4  A$glcd$1447                        glcd
C:   000003D6  A$glcd$1450                        glcd
C:   000003D6  C$glcd.c$54$1$56                   glcd
C:   000003D9  A$glcd$1453                        glcd
C:   000003D9  C$glcd.c$55$1$56                   glcd
C:   000003DB  A$glcd$1456                        glcd
C:   000003DB  C$glcd.c$56$1$56                   glcd
C:   000003DE  A$glcd$1459                        glcd
C:   000003DE  C$glcd.c$57$1$56                   glcd
C:   000003DF  A$glcd$1460                        glcd
C:   000003E0  A$glcd$1461                        glcd
C:   000003E1  A$glcd$1462                        glcd
C:   000003E2  A$glcd$1465                        glcd
C:   000003E2  C$glcd.c$58$1$56                   glcd
C:   000003E4  A$glcd$1468                        glcd
C:   000003E4  C$glcd.c$59$1$56                   glcd
C:   000003E5  A$glcd$1469                        glcd
C:   000003E6  A$glcd$1470                        glcd
C:   000003E7  A$glcd$1471                        glcd
C:   000003E8  A$glcd$1472                        glcd
C:   000003E9  A$glcd$1473                        glcd
C:   000003EA  A$glcd$1474                        glcd
C:   000003EB  A$glcd$1475                        glcd
C:   000003EC  A$glcd$1476                        glcd
C:   000003ED  A$glcd$1477                        glcd
C:   000003EE  A$glcd$1478                        glcd
C:   000003EF  A$glcd$1479                        glcd
C:   000003F0  A$glcd$1482                        glcd
C:   000003F0  C$glcd.c$60$1$56                   glcd
ASxxxx Linker V03.00 + NoICE + sdld,  page 44.
Hexadecimal  [32-Bits]

Area                                    Addr        Size        Decimal Bytes (Attributes)
--------------------------------        ----        ----        ------- ----- ------------
CSEG                                00000113    00001083 =        4227. bytes (REL,CON,CODE)

      Value  Global                              Global Defined In Module
      -----  --------------------------------   ------------------------
C:   000003F2  A$glcd$1485                        glcd
C:   000003F2  C$glcd.c$61$1$56                   glcd
C:   000003F5  A$glcd$1488                        glcd
C:   000003F5  C$glcd.c$62$1$56                   glcd
C:   000003F8  A$glcd$1491                        glcd
C:   000003F8  C$glcd.c$63$1$56                   glcd
C:   000003FB  A$glcd$1494                        glcd
C:   000003FB  C$glcd.c$64$1$56                   glcd
C:   000003FD  A$glcd$1497                        glcd
C:   000003FD  C$glcd.c$65$1$56                   glcd
C:   000003FE  A$glcd$1498                        glcd
C:   000003FF  A$glcd$1499                        glcd
C:   00000400  A$glcd$1500                        glcd
C:   00000401  A$glcd$1501                        glcd
C:   00000402  A$glcd$1502                        glcd
C:   00000403  A$glcd$1503                        glcd
C:   00000404  A$glcd$1504                        glcd
C:   00000405  A$glcd$1505                        glcd
C:   00000406  A$glcd$1506                        glcd
C:   00000407  A$glcd$1507                        glcd
C:   00000408  A$glcd$1508                        glcd
C:   00000409  A$glcd$1511                        glcd
C:   00000409  C$glcd.c$66$1$56                   glcd
C:   00000409  XG$esc_glcd$0$0                    glcd
C:   0000040A  A$glcd$1524                        glcd
C:   0000040A  C$glcd.c$68$1$56                   glcd
C:   0000040A  G$conf_Y$0$0                       glcd
C:   0000040A  _conf_Y                            glcd
C:   0000040C  A$glcd$1527                        glcd
C:   0000040C  C$glcd.c$69$1$59                   glcd
C:   0000040F  A$glcd$1530                        glcd
C:   0000040F  C$glcd.c$70$1$59                   glcd
C:   00000412  A$glcd$1533                        glcd
C:   00000412  C$glcd.c$71$1$59                   glcd
C:   00000414  A$glcd$1534                        glcd
C:   00000416  A$glcd$1535                        glcd
C:   00000418  A$glcd$1536                        glcd
C:   0000041A  A$glcd$1537                        glcd
C:   0000041D  A$glcd$1540                        glcd
C:   0000041D  C$glcd.c$72$1$59                   glcd
C:   0000041D  XG$conf_Y$0$0                      glcd
C:   0000041E  A$glcd$1553                        glcd
C:   0000041E  C$glcd.c$74$1$59                   glcd
C:   0000041E  G$conf_pag$0$0                     glcd
C:   0000041E  _conf_pag                          glcd
C:   00000420  A$glcd$1556                        glcd
C:   00000420  C$glcd.c$75$1$61                   glcd
C:   00000423  A$glcd$1559                        glcd
C:   00000423  C$glcd.c$76$1$61                   glcd
C:   00000426  A$glcd$1562                        glcd
C:   00000426  C$glcd.c$77$1$61                   glcd
ASxxxx Linker V03.00 + NoICE + sdld,  page 45.
Hexadecimal  [32-Bits]

Area                                    Addr        Size        Decimal Bytes (Attributes)
--------------------------------        ----        ----        ------- ----- ------------
CSEG                                00000113    00001083 =        4227. bytes (REL,CON,CODE)

      Value  Global                              Global Defined In Module
      -----  --------------------------------   ------------------------
C:   00000428  A$glcd$1563                        glcd
C:   0000042A  A$glcd$1564                        glcd
C:   0000042C  A$glcd$1565                        glcd
C:   0000042E  A$glcd$1566                        glcd
C:   00000431  A$glcd$1569                        glcd
C:   00000431  C$glcd.c$78$1$61                   glcd
C:   00000431  XG$conf_pag$0$0                    glcd
C:   00000432  A$glcd$1585                        glcd
C:   00000432  C$glcd.c$80$1$61                   glcd
C:   00000432  G$limpa_glcd$0$0                   glcd
C:   00000432  _limpa_glcd                        glcd
C:   00000434  A$glcd$1589                        glcd
C:   00000434  C$glcd.c$84$2$64                   glcd
C:   00000436  A$glcd$1590                        glcd
C:   00000438  A$glcd$1591                        glcd
C:   0000043A  A$glcd$1592                        glcd
C:   0000043D  A$glcd$1593                        glcd
C:   0000043F  A$glcd$1596                        glcd
C:   0000043F  C$glcd.c$85$2$64                   glcd
C:   00000441  A$glcd$1597                        glcd
C:   00000443  A$glcd$1598                        glcd
C:   00000445  A$glcd$1599                        glcd
C:   00000448  A$glcd$1602                        glcd
C:   00000448  C$glcd.c$86$2$64                   glcd
C:   0000044A  A$glcd$1603                        glcd
C:   0000044D  A$glcd$1604                        glcd
C:   00000450  A$glcd$1607                        glcd
C:   00000450  C$glcd.c$87$2$64                   glcd
C:   00000452  A$glcd$1608                        glcd
C:   00000455  A$glcd$1609                        glcd
C:   00000458  A$glcd$1610                        glcd
C:   0000045A  A$glcd$1613                        glcd
C:   0000045A  C$glcd.c$88$1$63                   glcd
C:   0000045C  A$glcd$1617                        glcd
C:   0000045C  C$glcd.c$89$3$65                   glcd
C:   0000045E  A$glcd$1618                        glcd
C:   00000460  A$glcd$1619                        glcd
C:   00000463  A$glcd$1620                        glcd
C:   00000465  A$glcd$1621                        glcd
C:   00000467  A$glcd$1622                        glcd
C:   0000046A  A$glcd$1625                        glcd
C:   0000046A  C$glcd.c$90$3$65                   glcd
C:   0000046C  A$glcd$1626                        glcd
C:   0000046E  A$glcd$1627                        glcd
C:   00000471  A$glcd$1628                        glcd
C:   00000474  A$glcd$1629                        glcd
C:   00000476  A$glcd$1630                        glcd
C:   00000478  A$glcd$1633                        glcd
C:   00000478  C$glcd.c$88$2$64                   glcd
C:   00000479  A$glcd$1634                        glcd
C:   0000047C  A$glcd$1636                        glcd
ASxxxx Linker V03.00 + NoICE + sdld,  page 46.
Hexadecimal  [32-Bits]

Area                                    Addr        Size        Decimal Bytes (Attributes)
--------------------------------        ----        ----        ------- ----- ------------
CSEG                                00000113    00001083 =        4227. bytes (REL,CON,CODE)

      Value  Global                              Global Defined In Module
      -----  --------------------------------   ------------------------
C:   0000047E  A$glcd$1639                        glcd
C:   0000047E  C$glcd.c$83$1$63                   glcd
C:   0000047F  A$glcd$1640                        glcd
C:   00000482  A$glcd$1642                        glcd
C:   00000484  A$glcd$1645                        glcd
C:   00000484  C$glcd.c$93$1$63                   glcd
C:   00000484  XG$limpa_glcd$0$0                  glcd
C:   00000485  A$glcd$1658                        glcd
C:   00000485  C$glcd.c$95$1$63                   glcd
C:   00000485  C$glcd.c$97$1$67                   glcd
C:   00000485  G$init_GLCD$0$0                    glcd
C:   00000485  _init_GLCD                         glcd
C:   00000487  A$glcd$1661                        glcd
C:   00000487  C$glcd.c$98$1$67                   glcd
C:   00000489  A$glcd$1662                        glcd
C:   0000048B  A$glcd$1663                        glcd
C:   0000048D  A$glcd$1664                        glcd
C:   0000048F  A$glcd$1665                        glcd
C:   00000491  A$glcd$1668                        glcd
C:   00000491  C$glcd.c$99$1$67                   glcd
C:   00000494  A$glcd$1671                        glcd
C:   00000494  C$glcd.c$100$1$67                  glcd
C:   00000497  A$glcd$1674                        glcd
C:   00000497  C$glcd.c$101$1$67                  glcd
C:   0000049A  A$glcd$1677                        glcd
C:   0000049A  C$glcd.c$104$1$67                  glcd
C:   0000049D  A$glcd$1681                        glcd
C:   0000049D  C$glcd.c$105$1$67                  glcd
C:   0000049F  A$glcd$1682                        glcd
C:   000004A1  A$glcd$1683                        glcd
C:   000004A4  A$glcd$1684                        glcd
C:   000004A6  A$glcd$1685                        glcd
C:   000004A9  A$glcd$1688                        glcd
C:   000004A9  C$glcd.c$106$1$67                  glcd
C:   000004AC  A$glcd$1692                        glcd
C:   000004AC  C$glcd.c$107$1$67                  glcd
C:   000004AE  A$glcd$1693                        glcd
C:   000004B0  A$glcd$1694                        glcd
C:   000004B3  A$glcd$1695                        glcd
C:   000004B5  A$glcd$1696                        glcd
C:   000004B8  A$glcd$1699                        glcd
C:   000004B8  C$glcd.c$110$1$67                  glcd
C:   000004BA  A$glcd$1700                        glcd
C:   000004BC  A$glcd$1701                        glcd
C:   000004BF  A$glcd$1702                        glcd
C:   000004C2  A$glcd$1705                        glcd
C:   000004C2  C$glcd.c$111$1$67                  glcd
C:   000004C4  A$glcd$1706                        glcd
C:   000004C6  A$glcd$1707                        glcd
C:   000004C9  A$glcd$1708                        glcd
C:   000004CC  A$glcd$1711                        glcd
ASxxxx Linker V03.00 + NoICE + sdld,  page 47.
Hexadecimal  [32-Bits]

Area                                    Addr        Size        Decimal Bytes (Attributes)
--------------------------------        ----        ----        ------- ----- ------------
CSEG                                00000113    00001083 =        4227. bytes (REL,CON,CODE)

      Value  Global                              Global Defined In Module
      -----  --------------------------------   ------------------------
C:   000004CC  C$glcd.c$114$1$67                  glcd
C:   000004CE  A$glcd$1712                        glcd
C:   000004D0  A$glcd$1713                        glcd
C:   000004D3  A$glcd$1714                        glcd
C:   000004D6  A$glcd$1717                        glcd
C:   000004D6  C$glcd.c$115$1$67                  glcd
C:   000004D8  A$glcd$1718                        glcd
C:   000004DA  A$glcd$1719                        glcd
C:   000004DD  A$glcd$1720                        glcd
C:   000004E0  A$glcd$1723                        glcd
C:   000004E0  C$glcd.c$118$1$67                  glcd
C:   000004E2  A$glcd$1724                        glcd
C:   000004E4  A$glcd$1725                        glcd
C:   000004E7  A$glcd$1726                        glcd
C:   000004EA  A$glcd$1729                        glcd
C:   000004EA  C$glcd.c$119$1$67                  glcd
C:   000004EC  A$glcd$1730                        glcd
C:   000004EE  A$glcd$1731                        glcd
C:   000004F1  A$glcd$1732                        glcd
C:   000004F4  A$glcd$1735                        glcd
C:   000004F4  C$glcd.c$122$1$67                  glcd
C:   000004F6  A$glcd$1736                        glcd
C:   000004F8  A$glcd$1737                        glcd
C:   000004FB  A$glcd$1738                        glcd
C:   000004FE  A$glcd$1741                        glcd
C:   000004FE  C$glcd.c$123$1$67                  glcd
C:   00000500  A$glcd$1742                        glcd
C:   00000502  A$glcd$1743                        glcd
C:   00000505  A$glcd$1744                        glcd
C:   00000508  A$glcd$1747                        glcd
C:   00000508  C$glcd.c$124$1$67                  glcd
C:   00000508  XG$init_GLCD$0$0                   glcd
C:   00000509  A$glcd$1762                        glcd
C:   00000509  C$glcd.c$126$1$67                  glcd
C:   00000509  G$putchar$0$0                      glcd
C:   00000509  _putchar                           glcd
C:   0000050B  A$glcd$1765                        glcd
C:   0000050B  C$glcd.c$128$1$71                  glcd
C:   0000050D  A$glcd$1766                        glcd
C:   0000050F  A$glcd$1767                        glcd
C:   00000511  A$glcd$1768                        glcd
C:   00000513  A$glcd$1769                        glcd
C:   00000515  A$glcd$1771                        glcd
C:   00000517  A$glcd$1775                        glcd
C:   00000517  C$glcd.c$130$1$71                  glcd
C:   0000051A  A$glcd$1777                        glcd
C:   0000051C  A$glcd$1778                        glcd
C:   0000051D  A$glcd$1779                        glcd
C:   0000051F  A$glcd$1780                        glcd
C:   00000521  A$glcd$1783                        glcd
C:   00000521  C$glcd.c$131$2$72                  glcd
ASxxxx Linker V03.00 + NoICE + sdld,  page 48.
Hexadecimal  [32-Bits]

Area                                    Addr        Size        Decimal Bytes (Attributes)
--------------------------------        ----        ----        ------- ----- ------------
CSEG                                00000113    00001083 =        4227. bytes (REL,CON,CODE)

      Value  Global                              Global Defined In Module
      -----  --------------------------------   ------------------------
C:   00000522  A$glcd$1784                        glcd
C:   00000523  A$glcd$1785                        glcd
C:   00000524  A$glcd$1786                        glcd
C:   00000526  A$glcd$1787                        glcd
C:   00000528  A$glcd$1788                        glcd
C:   0000052A  A$glcd$1789                        glcd
C:   0000052D  A$glcd$1790                        glcd
C:   0000052F  A$glcd$1793                        glcd
C:   0000052F  C$glcd.c$132$2$72                  glcd
C:   00000531  A$glcd$1794                        glcd
C:   00000533  A$glcd$1795                        glcd
C:   00000536  A$glcd$1798                        glcd
C:   00000536  C$glcd.c$133$2$72                  glcd
C:   00000538  A$glcd$1799                        glcd
C:   0000053B  A$glcd$1800                        glcd
C:   0000053E  A$glcd$1803                        glcd
C:   0000053E  C$glcd.c$134$2$72                  glcd
C:   00000540  A$glcd$1804                        glcd
C:   00000543  A$glcd$1805                        glcd
C:   00000546  A$glcd$1808                        glcd
C:   00000546  C$glcd.c$135$2$72                  glcd
C:   00000549  A$glcd$1809                        glcd
C:   0000054C  A$glcd$1813                        glcd
C:   0000054C  C$glcd.c$138$2$73                  glcd
C:   0000054E  A$glcd$1814                        glcd
C:   0000054F  A$glcd$1815                        glcd
C:   00000551  A$glcd$1816                        glcd
C:   00000553  A$glcd$1817                        glcd
C:   00000554  A$glcd$1818                        glcd
C:   00000556  A$glcd$1819                        glcd
C:   00000558  A$glcd$1820                        glcd
C:   0000055B  A$glcd$1821                        glcd
C:   0000055D  A$glcd$1822                        glcd
C:   00000560  A$glcd$1823                        glcd
C:   00000562  A$glcd$1824                        glcd
C:   00000564  A$glcd$1825                        glcd
C:   00000566  A$glcd$1826                        glcd
C:   00000567  A$glcd$1827                        glcd
C:   00000569  A$glcd$1828                        glcd
C:   0000056A  A$glcd$1829                        glcd
C:   0000056B  A$glcd$1830                        glcd
C:   0000056D  A$glcd$1831                        glcd
C:   0000056E  A$glcd$1832                        glcd
C:   00000570  A$glcd$1833                        glcd
C:   00000572  A$glcd$1834                        glcd
C:   00000573  A$glcd$1835                        glcd
C:   00000574  A$glcd$1836                        glcd
C:   00000575  A$glcd$1837                        glcd
C:   00000576  A$glcd$1838                        glcd
C:   00000578  A$glcd$1839                        glcd
C:   0000057A  A$glcd$1840                        glcd
ASxxxx Linker V03.00 + NoICE + sdld,  page 49.
Hexadecimal  [32-Bits]

Area                                    Addr        Size        Decimal Bytes (Attributes)
--------------------------------        ----        ----        ------- ----- ------------
CSEG                                00000113    00001083 =        4227. bytes (REL,CON,CODE)

      Value  Global                              Global Defined In Module
      -----  --------------------------------   ------------------------
C:   0000057C  A$glcd$1841                        glcd
C:   0000057E  A$glcd$1842                        glcd
C:   00000580  A$glcd$1843                        glcd
C:   00000582  A$glcd$1844                        glcd
C:   00000584  A$glcd$1845                        glcd
C:   00000586  A$glcd$1846                        glcd
C:   00000589  A$glcd$1847                        glcd
C:   0000058B  A$glcd$1848                        glcd
C:   0000058D  A$glcd$1851                        glcd
C:   0000058D  C$glcd.c$139$2$73                  glcd
C:   0000058F  A$glcd$1852                        glcd
C:   00000591  A$glcd$1853                        glcd
C:   00000592  A$glcd$1854                        glcd
C:   00000593  A$glcd$1855                        glcd
C:   00000594  A$glcd$1856                        glcd
C:   00000595  A$glcd$1857                        glcd
C:   00000597  A$glcd$1858                        glcd
C:   00000599  A$glcd$1859                        glcd
C:   0000059B  A$glcd$1860                        glcd
C:   0000059D  A$glcd$1861                        glcd
C:   0000059F  A$glcd$1862                        glcd
C:   000005A1  A$glcd$1863                        glcd
C:   000005A4  A$glcd$1864                        glcd
C:   000005A6  A$glcd$1865                        glcd
C:   000005A8  A$glcd$1868                        glcd
C:   000005A8  C$glcd.c$140$2$73                  glcd
C:   000005AA  A$glcd$1869                        glcd
C:   000005AC  A$glcd$1870                        glcd
C:   000005AD  A$glcd$1871                        glcd
C:   000005AE  A$glcd$1872                        glcd
C:   000005AF  A$glcd$1873                        glcd
C:   000005B0  A$glcd$1874                        glcd
C:   000005B1  A$glcd$1875                        glcd
C:   000005B3  A$glcd$1876                        glcd
C:   000005B5  A$glcd$1877                        glcd
C:   000005B7  A$glcd$1878                        glcd
C:   000005B9  A$glcd$1879                        glcd
C:   000005BB  A$glcd$1880                        glcd
C:   000005BD  A$glcd$1881                        glcd
C:   000005C0  A$glcd$1882                        glcd
C:   000005C2  A$glcd$1883                        glcd
C:   000005C4  A$glcd$1886                        glcd
C:   000005C4  C$glcd.c$141$2$73                  glcd
C:   000005C6  A$glcd$1887                        glcd
C:   000005C8  A$glcd$1888                        glcd
C:   000005C9  A$glcd$1889                        glcd
C:   000005CA  A$glcd$1890                        glcd
C:   000005CB  A$glcd$1891                        glcd
C:   000005CC  A$glcd$1892                        glcd
C:   000005CD  A$glcd$1893                        glcd
C:   000005CE  A$glcd$1894                        glcd
ASxxxx Linker V03.00 + NoICE + sdld,  page 50.
Hexadecimal  [32-Bits]

Area                                    Addr        Size        Decimal Bytes (Attributes)
--------------------------------        ----        ----        ------- ----- ------------
CSEG                                00000113    00001083 =        4227. bytes (REL,CON,CODE)

      Value  Global                              Global Defined In Module
      -----  --------------------------------   ------------------------
C:   000005D0  A$glcd$1895                        glcd
C:   000005D2  A$glcd$1896                        glcd
C:   000005D4  A$glcd$1897                        glcd
C:   000005D6  A$glcd$1898                        glcd
C:   000005D8  A$glcd$1899                        glcd
C:   000005DA  A$glcd$1900                        glcd
C:   000005DD  A$glcd$1901                        glcd
C:   000005DF  A$glcd$1902                        glcd
C:   000005E1  A$glcd$1905                        glcd
C:   000005E1  C$glcd.c$142$2$73                  glcd
C:   000005E3  A$glcd$1906                        glcd
C:   000005E5  A$glcd$1907                        glcd
C:   000005E6  A$glcd$1908                        glcd
C:   000005E7  A$glcd$1909                        glcd
C:   000005E8  A$glcd$1910                        glcd
C:   000005E9  A$glcd$1911                        glcd
C:   000005EA  A$glcd$1912                        glcd
C:   000005EB  A$glcd$1913                        glcd
C:   000005EC  A$glcd$1914                        glcd
C:   000005EE  A$glcd$1915                        glcd
C:   000005F0  A$glcd$1916                        glcd
C:   000005F2  A$glcd$1917                        glcd
C:   000005F4  A$glcd$1918                        glcd
C:   000005F7  A$glcd$1921                        glcd
C:   000005F7  C$glcd.c$144$2$73                  glcd
C:   000005F9  A$glcd$1922                        glcd
C:   000005FB  A$glcd$1923                        glcd
C:   000005FD  A$glcd$1924                        glcd
C:   00000600  A$glcd$1925                        glcd
C:   00000603  A$glcd$1928                        glcd
C:   00000603  C$glcd.c$145$2$73                  glcd
C:   00000605  A$glcd$1929                        glcd
C:   00000607  A$glcd$1930                        glcd
C:   00000609  A$glcd$1931                        glcd
C:   0000060C  A$glcd$1932                        glcd
C:   0000060F  A$glcd$1935                        glcd
C:   0000060F  C$glcd.c$146$2$73                  glcd
C:   00000611  A$glcd$1936                        glcd
C:   00000613  A$glcd$1937                        glcd
C:   00000615  A$glcd$1938                        glcd
C:   00000618  A$glcd$1939                        glcd
C:   0000061B  A$glcd$1942                        glcd
C:   0000061B  C$glcd.c$148$2$73                  glcd
C:   0000061D  A$glcd$1943                        glcd
C:   0000061E  A$glcd$1944                        glcd
C:   00000620  A$glcd$1945                        glcd
C:   00000622  A$glcd$1949                        glcd
C:   00000622  C$glcd.c$150$1$71                  glcd
C:   00000622  XG$putchar$0$0                     glcd
C:   00000623  A$glcd$1964                        glcd
C:   00000623  C$glcd.c$152$1$71                  glcd
ASxxxx Linker V03.00 + NoICE + sdld,  page 51.
Hexadecimal  [32-Bits]

Area                                    Addr        Size        Decimal Bytes (Attributes)
--------------------------------        ----        ----        ------- ----- ------------
CSEG                                00000113    00001083 =        4227. bytes (REL,CON,CODE)

      Value  Global                              Global Defined In Module
      -----  --------------------------------   ------------------------
C:   00000623  G$limpa_col_glcd$0$0               glcd
C:   00000623  _limpa_col_glcd                    glcd
C:   00000625  A$glcd$1967                        glcd
C:   00000625  C$glcd.c$153$1$75                  glcd
C:   00000627  A$glcd$1968                        glcd
C:   00000628  A$glcd$1969                        glcd
C:   00000629  A$glcd$1972                        glcd
C:   00000629  C$glcd.c$155$2$76                  glcd
C:   0000062C  A$glcd$1973                        glcd
C:   0000062E  A$glcd$1977                        glcd
C:   0000062E  C$glcd.c$156$2$76                  glcd
C:   0000062F  A$glcd$1978                        glcd
C:   00000631  A$glcd$1979                        glcd
C:   00000633  A$glcd$1980                        glcd
C:   00000635  A$glcd$1981                        glcd
C:   00000637  A$glcd$1982                        glcd
C:   00000639  A$glcd$1983                        glcd
C:   0000063B  A$glcd$1984                        glcd
C:   0000063D  A$glcd$1985                        glcd
C:   00000640  A$glcd$1986                        glcd
C:   00000642  A$glcd$1987                        glcd
C:   00000644  A$glcd$1988                        glcd
C:   00000646  A$glcd$1991                        glcd
C:   00000646  C$glcd.c$157$2$76                  glcd
C:   00000648  A$glcd$1992                        glcd
C:   0000064A  A$glcd$1993                        glcd
C:   0000064C  A$glcd$1994                        glcd
C:   0000064E  A$glcd$1995                        glcd
C:   00000650  A$glcd$1996                        glcd
C:   00000652  A$glcd$1997                        glcd
C:   00000655  A$glcd$2000                        glcd
C:   00000655  C$glcd.c$158$2$76                  glcd
C:   00000657  A$glcd$2001                        glcd
C:   00000659  A$glcd$2002                        glcd
C:   0000065B  A$glcd$2003                        glcd
C:   0000065E  A$glcd$2004                        glcd
C:   00000661  A$glcd$2005                        glcd
C:   00000663  A$glcd$2006                        glcd
C:   00000665  A$glcd$2007                        glcd
C:   00000667  A$glcd$2010                        glcd
C:   00000667  C$glcd.c$155$1$75                  glcd
C:   00000668  A$glcd$2011                        glcd
C:   0000066B  A$glcd$2013                        glcd
C:   0000066D  A$glcd$2016                        glcd
C:   0000066D  C$glcd.c$160$1$75                  glcd
C:   0000066D  XG$limpa_col_glcd$0$0              glcd
C:   0000066E  A$glcd$2032                        glcd
C:   0000066E  C$glcd.c$162$1$75                  glcd
C:   0000066E  G$escala_glcd$0$0                  glcd
C:   0000066E  _escala_glcd                       glcd
C:   00000670  A$glcd$2033                        glcd
ASxxxx Linker V03.00 + NoICE + sdld,  page 52.
Hexadecimal  [32-Bits]

Area                                    Addr        Size        Decimal Bytes (Attributes)
--------------------------------        ----        ----        ------- ----- ------------
CSEG                                00000113    00001083 =        4227. bytes (REL,CON,CODE)

      Value  Global                              Global Defined In Module
      -----  --------------------------------   ------------------------
C:   00000672  A$glcd$2034                        glcd
C:   00000674  A$glcd$2035                        glcd
C:   00000675  A$glcd$2038                        glcd
C:   00000675  C$glcd.c$163$1$78                  glcd
C:   00000677  A$glcd$2039                        glcd
C:   00000679  A$glcd$2040                        glcd
C:   0000067B  A$glcd$2041                        glcd
C:   0000067D  A$glcd$2042                        glcd
C:   0000067F  A$glcd$2043                        glcd
C:   00000681  A$glcd$2044                        glcd
C:   00000683  A$glcd$2045                        glcd
C:   00000684  A$glcd$2046                        glcd
C:   00000687  A$glcd$2047                        glcd
C:   00000689  A$glcd$2048                        glcd
C:   0000068B  A$glcd$2049                        glcd
C:   0000068D  A$glcd$2050                        glcd
C:   0000068E  A$glcd$2051                        glcd
C:   00000690  A$glcd$2052                        glcd
C:   00000692  A$glcd$2053                        glcd
C:   00000694  A$glcd$2054                        glcd
C:   00000696  A$glcd$2055                        glcd
C:   00000698  A$glcd$2056                        glcd
C:   0000069A  A$glcd$2057                        glcd
C:   0000069C  A$glcd$2058                        glcd
C:   0000069F  A$glcd$2059                        glcd
C:   000006A2  A$glcd$2060                        glcd
C:   000006A4  A$glcd$2061                        glcd
C:   000006A7  A$glcd$2062                        glcd
C:   000006A9  A$glcd$2063                        glcd
C:   000006AB  A$glcd$2064                        glcd
C:   000006AD  A$glcd$2065                        glcd
C:   000006AE  A$glcd$2066                        glcd
C:   000006B0  A$glcd$2067                        glcd
C:   000006B2  A$glcd$2068                        glcd
C:   000006B4  A$glcd$2069                        glcd
C:   000006B6  A$glcd$2070                        glcd
C:   000006B8  A$glcd$2071                        glcd
C:   000006BA  A$glcd$2072                        glcd
C:   000006BC  A$glcd$2073                        glcd
C:   000006BE  A$glcd$2074                        glcd
C:   000006C0  A$glcd$2075                        glcd
C:   000006C2  A$glcd$2076                        glcd
C:   000006C4  A$glcd$2077                        glcd
C:   000006C7  A$glcd$2078                        glcd
C:   000006CA  A$glcd$2079                        glcd
C:   000006CD  A$glcd$2080                        glcd
C:   000006CF  A$glcd$2081                        glcd
C:   000006D2  A$glcd$2082                        glcd
C:   000006D4  A$glcd$2083                        glcd
C:   000006D6  A$glcd$2084                        glcd
C:   000006D8  A$glcd$2085                        glcd
ASxxxx Linker V03.00 + NoICE + sdld,  page 53.
Hexadecimal  [32-Bits]

Area                                    Addr        Size        Decimal Bytes (Attributes)
--------------------------------        ----        ----        ------- ----- ------------
CSEG                                00000113    00001083 =        4227. bytes (REL,CON,CODE)

      Value  Global                              Global Defined In Module
      -----  --------------------------------   ------------------------
C:   000006D9  A$glcd$2086                        glcd
C:   000006DB  A$glcd$2087                        glcd
C:   000006DD  A$glcd$2088                        glcd
C:   000006DF  A$glcd$2089                        glcd
C:   000006E1  A$glcd$2090                        glcd
C:   000006E3  A$glcd$2091                        glcd
C:   000006E5  A$glcd$2092                        glcd
C:   000006E7  A$glcd$2093                        glcd
C:   000006E9  A$glcd$2094                        glcd
C:   000006EB  A$glcd$2095                        glcd
C:   000006ED  A$glcd$2096                        glcd
C:   000006EF  A$glcd$2097                        glcd
C:   000006F1  A$glcd$2098                        glcd
C:   000006F3  A$glcd$2099                        glcd
C:   000006F5  A$glcd$2100                        glcd
C:   000006F6  A$glcd$2101                        glcd
C:   000006F9  A$glcd$2102                        glcd
C:   000006FB  A$glcd$2103                        glcd
C:   000006FD  A$glcd$2104                        glcd
C:   000006FF  A$glcd$2105                        glcd
C:   00000700  A$glcd$2106                        glcd
C:   00000702  A$glcd$2107                        glcd
C:   00000704  A$glcd$2108                        glcd
C:   00000706  A$glcd$2111                        glcd
C:   00000706  C$glcd.c$165$1$78                  glcd
C:   00000708  A$glcd$2112                        glcd
C:   0000070A  A$glcd$2113                        glcd
C:   0000070C  A$glcd$2114                        glcd
C:   0000070E  A$glcd$2115                        glcd
C:   0000070F  A$glcd$2116                        glcd
C:   00000711  A$glcd$2117                        glcd
C:   00000713  A$glcd$2118                        glcd
C:   00000715  A$glcd$2119                        glcd
C:   00000717  A$glcd$2120                        glcd
C:   00000719  A$glcd$2121                        glcd
C:   0000071B  A$glcd$2122                        glcd
C:   0000071D  A$glcd$2123                        glcd
C:   0000071F  A$glcd$2124                        glcd
C:   00000721  A$glcd$2125                        glcd
C:   00000722  A$glcd$2126                        glcd
C:   00000725  A$glcd$2127                        glcd
C:   00000727  A$glcd$2128                        glcd
C:   00000729  A$glcd$2129                        glcd
C:   0000072B  A$glcd$2130                        glcd
C:   0000072D  A$glcd$2131                        glcd
C:   0000072F  A$glcd$2132                        glcd
C:   00000731  A$glcd$2133                        glcd
C:   00000733  A$glcd$2134                        glcd
C:   00000735  A$glcd$2135                        glcd
C:   00000737  A$glcd$2136                        glcd
C:   00000739  A$glcd$2137                        glcd
ASxxxx Linker V03.00 + NoICE + sdld,  page 54.
Hexadecimal  [32-Bits]

Area                                    Addr        Size        Decimal Bytes (Attributes)
--------------------------------        ----        ----        ------- ----- ------------
CSEG                                00000113    00001083 =        4227. bytes (REL,CON,CODE)

      Value  Global                              Global Defined In Module
      -----  --------------------------------   ------------------------
C:   0000073B  A$glcd$2140                        glcd
C:   0000073B  C$glcd.c$166$1$78                  glcd
C:   0000073E  A$glcd$2141                        glcd
C:   00000740  A$glcd$2145                        glcd
C:   00000740  C$glcd.c$167$1$78                  glcd
C:   00000742  A$glcd$2146                        glcd
C:   00000744  A$glcd$2147                        glcd
C:   00000746  A$glcd$2148                        glcd
C:   00000748  A$glcd$2149                        glcd
C:   00000749  A$glcd$2150                        glcd
C:   0000074B  A$glcd$2151                        glcd
C:   0000074D  A$glcd$2152                        glcd
C:   0000074F  A$glcd$2153                        glcd
C:   00000751  A$glcd$2154                        glcd
C:   00000753  A$glcd$2155                        glcd
C:   00000755  A$glcd$2156                        glcd
C:   00000757  A$glcd$2157                        glcd
C:   00000758  A$glcd$2158                        glcd
C:   0000075B  A$glcd$2159                        glcd
C:   0000075D  A$glcd$2160                        glcd
C:   0000075F  A$glcd$2161                        glcd
C:   00000761  A$glcd$2162                        glcd
C:   00000763  A$glcd$2163                        glcd
C:   00000765  A$glcd$2164                        glcd
C:   00000767  A$glcd$2165                        glcd
C:   00000769  A$glcd$2166                        glcd
C:   0000076B  A$glcd$2167                        glcd
C:   0000076D  A$glcd$2168                        glcd
C:   0000076F  A$glcd$2169                        glcd
C:   00000771  A$glcd$2172                        glcd
C:   00000771  C$glcd.c$168$1$78                  glcd
C:   00000774  A$glcd$2173                        glcd
C:   00000776  A$glcd$2177                        glcd
C:   00000776  C$glcd.c$170$1$78                  glcd
C:   00000777  A$glcd$2178                        glcd
C:   00000779  A$glcd$2179                        glcd
C:   0000077B  A$glcd$2180                        glcd
C:   0000077D  A$glcd$2181                        glcd
C:   0000077F  A$glcd$2182                        glcd
C:   00000781  A$glcd$2183                        glcd
C:   00000783  A$glcd$2184                        glcd
C:   00000785  A$glcd$2185                        glcd
C:   00000787  A$glcd$2186                        glcd
C:   00000788  A$glcd$2187                        glcd
C:   0000078B  A$glcd$2188                        glcd
C:   0000078D  A$glcd$2189                        glcd
C:   0000078F  A$glcd$2190                        glcd
C:   00000791  A$glcd$2191                        glcd
C:   00000792  A$glcd$2192                        glcd
C:   00000794  A$glcd$2193                        glcd
C:   00000796  A$glcd$2194                        glcd
ASxxxx Linker V03.00 + NoICE + sdld,  page 55.
Hexadecimal  [32-Bits]

Area                                    Addr        Size        Decimal Bytes (Attributes)
--------------------------------        ----        ----        ------- ----- ------------
CSEG                                00000113    00001083 =        4227. bytes (REL,CON,CODE)

      Value  Global                              Global Defined In Module
      -----  --------------------------------   ------------------------
C:   00000798  A$glcd$2195                        glcd
C:   0000079A  A$glcd$2196                        glcd
C:   0000079C  A$glcd$2197                        glcd
C:   0000079E  A$glcd$2198                        glcd
C:   0000079F  A$glcd$2199                        glcd
C:   000007A2  A$glcd$2203                        glcd
C:   000007A2  C$glcd.c$171$1$78                  glcd
C:   000007A2  XG$escala_glcd$0$0                 glcd
C:   000007A3  A$glcd$2222                        glcd
C:   000007A3  C$glcd.c$173$1$78                  glcd
C:   000007A3  C$glcd.c$174$1$80                  glcd
C:   000007A3  G$ponto_glcd$0$0                   glcd
C:   000007A3  _ponto_glcd                        glcd
C:   000007A5  A$glcd$2223                        glcd
C:   000007A6  A$glcd$2224                        glcd
C:   000007A9  A$glcd$2225                        glcd
C:   000007AB  A$glcd$2226                        glcd
C:   000007AD  A$glcd$2228                        glcd
C:   000007AF  A$glcd$2232                        glcd
C:   000007AF  C$glcd.c$175$1$80                  glcd
C:   000007B1  A$glcd$2233                        glcd
C:   000007B3  A$glcd$2234                        glcd
C:   000007B4  A$glcd$2235                        glcd
C:   000007B6  A$glcd$2236                        glcd
C:   000007B7  A$glcd$2237                        glcd
C:   000007B8  A$glcd$2240                        glcd
C:   000007B8  C$glcd.c$176$1$80                  glcd
C:   000007BA  A$glcd$2241                        glcd
C:   000007BB  A$glcd$2242                        glcd
C:   000007BC  A$glcd$2243                        glcd
C:   000007BE  A$glcd$2244                        glcd
C:   000007BF  A$glcd$2245                        glcd
C:   000007C1  A$glcd$2246                        glcd
C:   000007C2  A$glcd$2247                        glcd
C:   000007C3  A$glcd$2248                        glcd
C:   000007C5  A$glcd$2251                        glcd
C:   000007C5  C$glcd.c$178$1$80                  glcd
C:   000007C6  A$glcd$2252                        glcd
C:   000007C8  A$glcd$2253                        glcd
C:   000007CA  A$glcd$2254                        glcd
C:   000007CC  A$glcd$2255                        glcd
C:   000007CE  A$glcd$2256                        glcd
C:   000007D0  A$glcd$2257                        glcd
C:   000007D3  A$glcd$2258                        glcd
C:   000007D5  A$glcd$2259                        glcd
C:   000007D7  A$glcd$2262                        glcd
C:   000007D7  C$glcd.c$179$1$80                  glcd
C:   000007D9  A$glcd$2263                        glcd
C:   000007DA  A$glcd$2264                        glcd
C:   000007DC  A$glcd$2265                        glcd
C:   000007DE  A$glcd$2266                        glcd
ASxxxx Linker V03.00 + NoICE + sdld,  page 56.
Hexadecimal  [32-Bits]

Area                                    Addr        Size        Decimal Bytes (Attributes)
--------------------------------        ----        ----        ------- ----- ------------
CSEG                                00000113    00001083 =        4227. bytes (REL,CON,CODE)

      Value  Global                              Global Defined In Module
      -----  --------------------------------   ------------------------
C:   000007E0  A$glcd$2267                        glcd
C:   000007E2  A$glcd$2268                        glcd
C:   000007E5  A$glcd$2269                        glcd
C:   000007E7  A$glcd$2272                        glcd
C:   000007E7  C$glcd.c$180$1$80                  glcd
C:   000007E9  A$glcd$2273                        glcd
C:   000007EB  A$glcd$2274                        glcd
C:   000007ED  A$glcd$2275                        glcd
C:   000007EF  A$glcd$2277                        glcd
C:   000007F1  A$glcd$2279                        glcd
C:   000007F4  A$glcd$2280                        glcd
C:   000007F6  A$glcd$2281                        glcd
C:   000007F8  A$glcd$2282                        glcd
C:   000007FA  A$glcd$2283                        glcd
C:   000007FC  A$glcd$2284                        glcd
C:   000007FF  A$glcd$2287                        glcd
C:   000007FF  C$glcd.c$181$1$80                  glcd
C:   000007FF  XG$ponto_glcd$0$0                  glcd
C:   00000800  A$adc$1277                         adc
C:   00000800  C$adc.c$8$0$0                      adc
C:   00000800  G$config_adc0$0$0                  adc
C:   00000800  _config_adc0                       adc
C:   00000802  A$adc$1280                         adc
C:   00000802  C$adc.c$9$1$13                     adc
C:   00000804  A$adc$1281                         adc
C:   00000806  A$adc$1282                         adc
C:   00000808  A$adc$1283                         adc
C:   0000080A  A$adc$1286                         adc
C:   0000080A  C$adc.c$10$1$13                    adc
C:   0000080C  A$adc$1289                         adc
C:   0000080C  C$adc.c$11$1$13                    adc
C:   0000080F  A$adc$1290                         adc
C:   00000812  A$adc$1293                         adc
C:   00000812  C$adc.c$12$1$13                    adc
C:   00000812  XG$config_adc0$0$0                 adc
C:   00000813  A$adc$1306                         adc
C:   00000813  C$adc.c$14$1$13                    adc
C:   00000813  C$adc.c$16$1$15                    adc
C:   00000813  G$le_adc0$0$0                      adc
C:   00000813  _le_adc0                           adc
C:   00000815  A$adc$1309                         adc
C:   00000815  C$adc.c$17$1$15                    adc
C:   00000818  A$adc$1313                         adc
C:   00000818  C$adc.c$18$1$15                    adc
C:   0000081B  A$adc$1316                         adc
C:   0000081B  C$adc.c$20$1$15                    adc
C:   0000081D  A$adc$1317                         adc
C:   0000081F  A$adc$1318                         adc
C:   00000821  A$adc$1319                         adc
C:   00000823  A$adc$1320                         adc
C:   00000824  A$adc$1321                         adc
ASxxxx Linker V03.00 + NoICE + sdld,  page 57.
Hexadecimal  [32-Bits]

Area                                    Addr        Size        Decimal Bytes (Attributes)
--------------------------------        ----        ----        ------- ----- ------------
CSEG                                00000113    00001083 =        4227. bytes (REL,CON,CODE)

      Value  Global                              Global Defined In Module
      -----  --------------------------------   ------------------------
C:   00000825  A$adc$1322                         adc
C:   00000827  A$adc$1323                         adc
C:   00000828  A$adc$1324                         adc
C:   00000829  A$adc$1325                         adc
C:   0000082B  A$adc$1328                         adc
C:   0000082B  C$adc.c$21$1$15                    adc
C:   0000082B  XG$le_adc0$0$0                     adc
C:   0000082C  A$adc$1339                         adc
C:   0000082C  C$adc.c$34$1$15                    adc
C:   0000082C  G$ISR_ADC0$0$0                     adc
C:   0000082C  _ISR_ADC0                          adc
C:   0000082E  A$adc$1340                         adc
C:   00000830  A$adc$1341                         adc
C:   00000832  A$adc$1342                         adc
C:   00000834  A$adc$1343                         adc
C:   00000836  A$adc$1344                         adc
C:   00000838  A$adc$1345                         adc
C:   0000083B  A$adc$1348                         adc
C:   0000083B  C$adc.c$35$1$18                    adc
C:   0000083D  A$adc$1349                         adc
C:   0000083F  A$adc$1350                         adc
C:   00000841  A$adc$1351                         adc
C:   00000843  A$adc$1352                         adc
C:   00000844  A$adc$1353                         adc
C:   00000845  A$adc$1354                         adc
C:   00000847  A$adc$1355                         adc
C:   00000848  A$adc$1356                         adc
C:   00000849  A$adc$1357                         adc
C:   0000084B  A$adc$1360                         adc
C:   0000084B  C$adc.c$36$1$18                    adc
C:   0000084D  A$adc$1363                         adc
C:   0000084D  C$adc.c$37$1$18                    adc
C:   0000084F  A$adc$1364                         adc
C:   00000851  A$adc$1365                         adc
C:   00000853  A$adc$1366                         adc
C:   00000855  A$adc$1367                         adc
C:   00000857  A$adc$1368                         adc
C:   00000859  A$adc$1369                         adc
C:   0000085B  A$adc$1372                         adc
C:   0000085B  C$adc.c$38$1$18                    adc
C:   0000085B  XG$ISR_ADC0$0$0                    adc
C:   0000085C  A$eeprom$1282                      eeprom
C:   0000085C  C$eeprom.c$11$0$0                  eeprom
C:   0000085C  C$eeprom.c$12$1$14                 eeprom
C:   0000085C  G$send_start$0$0                   eeprom
C:   0000085C  _send_start                        eeprom
C:   0000085E  A$eeprom$1283                      eeprom
C:   00000860  A$eeprom$1286                      eeprom
C:   00000860  C$eeprom.c$13$1$14                 eeprom
C:   00000862  A$eeprom$1289                      eeprom
C:   00000862  C$eeprom.c$14$1$14                 eeprom
ASxxxx Linker V03.00 + NoICE + sdld,  page 58.
Hexadecimal  [32-Bits]

Area                                    Addr        Size        Decimal Bytes (Attributes)
--------------------------------        ----        ----        ------- ----- ------------
CSEG                                00000113    00001083 =        4227. bytes (REL,CON,CODE)

      Value  Global                              Global Defined In Module
      -----  --------------------------------   ------------------------
C:   00000865  A$eeprom$1293                      eeprom
C:   00000865  C$eeprom.c$15$1$14                 eeprom
C:   00000868  A$eeprom$1296                      eeprom
C:   00000868  C$eeprom.c$16$1$14                 eeprom
C:   00000868  XG$send_start$0$0                  eeprom
C:   00000869  A$eeprom$1309                      eeprom
C:   00000869  C$eeprom.c$18$1$14                 eeprom
C:   00000869  C$eeprom.c$19$1$17                 eeprom
C:   00000869  G$send_stop$0$0                    eeprom
C:   00000869  _send_stop                         eeprom
C:   0000086B  A$eeprom$1312                      eeprom
C:   0000086B  C$eeprom.c$20$1$17                 eeprom
C:   0000086D  A$eeprom$1315                      eeprom
C:   0000086D  C$eeprom.c$21$1$17                 eeprom
C:   00000870  A$eeprom$1319                      eeprom
C:   00000870  C$eeprom.c$22$1$17                 eeprom
C:   00000873  A$eeprom$1322                      eeprom
C:   00000873  C$eeprom.c$23$1$17                 eeprom
C:   00000873  XG$send_stop$0$0                   eeprom
C:   00000874  A$eeprom$1335                      eeprom
C:   00000874  C$eeprom.c$25$1$17                 eeprom
C:   00000874  G$esc_byte_cntr$0$0                eeprom
C:   00000874  _esc_byte_cntr                     eeprom
C:   00000876  A$eeprom$1338                      eeprom
C:   00000876  C$eeprom.c$27$1$20                 eeprom
C:   00000878  A$eeprom$1339                      eeprom
C:   0000087A  A$eeprom$1340                      eeprom
C:   0000087D  A$eeprom$1341                      eeprom
C:   0000087F  A$eeprom$1344                      eeprom
C:   0000087F  C$eeprom.c$28$1$20                 eeprom
C:   00000881  A$eeprom$1345                      eeprom
C:   00000884  A$eeprom$1346                      eeprom
C:   00000886  A$eeprom$1348                      eeprom
C:   00000888  A$eeprom$1349                      eeprom
C:   0000088B  A$eeprom$1350                      eeprom
C:   0000088D  A$eeprom$1354                      eeprom
C:   0000088D  C$eeprom.c$29$1$20                 eeprom
C:   00000890  A$eeprom$1355                      eeprom
C:   00000892  A$eeprom$1359                      eeprom
C:   00000892  C$eeprom.c$32$1$20                 eeprom
C:   00000893  A$eeprom$1360                      eeprom
C:   00000894  A$eeprom$1361                      eeprom
C:   00000895  A$eeprom$1362                      eeprom
C:   00000897  A$eeprom$1363                      eeprom
C:   00000898  A$eeprom$1364                      eeprom
C:   00000899  A$eeprom$1365                      eeprom
C:   0000089A  A$eeprom$1366                      eeprom
C:   0000089C  A$eeprom$1369                      eeprom
C:   0000089C  C$eeprom.c$34$1$20                 eeprom
C:   0000089E  A$eeprom$1370                      eeprom
C:   000008A1  A$eeprom$1373                      eeprom
ASxxxx Linker V03.00 + NoICE + sdld,  page 59.
Hexadecimal  [32-Bits]

Area                                    Addr        Size        Decimal Bytes (Attributes)
--------------------------------        ----        ----        ------- ----- ------------
CSEG                                00000113    00001083 =        4227. bytes (REL,CON,CODE)

      Value  Global                              Global Defined In Module
      -----  --------------------------------   ------------------------
C:   000008A1  C$eeprom.c$37$1$20                 eeprom
C:   000008A4  A$eeprom$1374                      eeprom
C:   000008A6  A$eeprom$1375                      eeprom
C:   000008A9  A$eeprom$1377                      eeprom
C:   000008AC  A$eeprom$1378                      eeprom
C:   000008AE  A$eeprom$1379                      eeprom
C:   000008B1  A$eeprom$1380                      eeprom
C:   000008B3  A$eeprom$1385                      eeprom
C:   000008B3  C$eeprom.c$38$2$21                 eeprom
C:   000008B6  A$eeprom$1386                      eeprom
C:   000008B8  A$eeprom$1390                      eeprom
C:   000008B8  C$eeprom.c$41$1$20                 eeprom
C:   000008BB  A$eeprom$1394                      eeprom
C:   000008BB  C$eeprom.c$42$1$20                 eeprom
C:   000008BB  XG$esc_byte_cntr$0$0               eeprom
C:   000008BC  A$eeprom$1407                      eeprom
C:   000008BC  C$eeprom.c$44$1$20                 eeprom
C:   000008BC  G$esc_byte_dado$0$0                eeprom
C:   000008BC  _esc_byte_dado                     eeprom
C:   000008BF  A$eeprom$1410                      eeprom
C:   000008BF  C$eeprom.c$46$1$23                 eeprom
C:   000008C1  A$eeprom$1413                      eeprom
C:   000008C1  C$eeprom.c$47$1$23                 eeprom
C:   000008C4  A$eeprom$1417                      eeprom
C:   000008C4  C$eeprom.c$48$1$23                 eeprom
C:   000008C7  A$eeprom$1420                      eeprom
C:   000008C7  C$eeprom.c$50$1$23                 eeprom
C:   000008C9  A$eeprom$1421                      eeprom
C:   000008CC  A$eeprom$1422                      eeprom
C:   000008CD  A$eeprom$1423                      eeprom
C:   000008CF  A$eeprom$1425                      eeprom
C:   000008D0  A$eeprom$1427                      eeprom
C:   000008D2  A$eeprom$1428                      eeprom
C:   000008D4  A$eeprom$1429                      eeprom
C:   000008D6  A$eeprom$1430                      eeprom
C:   000008D8  A$eeprom$1432                      eeprom
C:   000008DA  A$eeprom$1434                      eeprom
C:   000008DC  A$eeprom$1437                      eeprom
C:   000008DC  C$eeprom.c$51$1$23                 eeprom
C:   000008DC  XG$esc_byte_dado$0$0               eeprom
C:   000008DD  A$eeprom$1452                      eeprom
C:   000008DD  C$eeprom.c$53$1$23                 eeprom
C:   000008DD  G$le_eeprom$0$0                    eeprom
C:   000008DD  _le_eeprom                         eeprom
C:   000008DF  A$eeprom$1455                      eeprom
C:   000008DF  C$eeprom.c$57$1$26                 eeprom
C:   000008E1  A$eeprom$1456                      eeprom
C:   000008E4  A$eeprom$1457                      eeprom
C:   000008E6  A$eeprom$1458                      eeprom
C:   000008E9  A$eeprom$1459                      eeprom
C:   000008EB  A$eeprom$1460                      eeprom
ASxxxx Linker V03.00 + NoICE + sdld,  page 60.
Hexadecimal  [32-Bits]

Area                                    Addr        Size        Decimal Bytes (Attributes)
--------------------------------        ----        ----        ------- ----- ------------
CSEG                                00000113    00001083 =        4227. bytes (REL,CON,CODE)

      Value  Global                              Global Defined In Module
      -----  --------------------------------   ------------------------
C:   000008ED  A$eeprom$1463                      eeprom
C:   000008ED  C$eeprom.c$58$1$26                 eeprom
C:   000008EE  A$eeprom$1464                      eeprom
C:   000008F0  A$eeprom$1465                      eeprom
C:   000008F2  A$eeprom$1466                      eeprom
C:   000008F4  A$eeprom$1467                      eeprom
C:   000008F5  A$eeprom$1468                      eeprom
C:   000008F6  A$eeprom$1469                      eeprom
C:   000008F7  A$eeprom$1470                      eeprom
C:   000008F9  A$eeprom$1471                      eeprom
C:   000008FA  A$eeprom$1472                      eeprom
C:   000008FB  A$eeprom$1473                      eeprom
C:   000008FD  A$eeprom$1474                      eeprom
C:   000008FF  A$eeprom$1478                      eeprom
C:   000008FF  C$eeprom.c$59$1$26                 eeprom
C:   00000901  A$eeprom$1479                      eeprom
C:   00000904  A$eeprom$1482                      eeprom
C:   00000904  C$eeprom.c$60$1$26                 eeprom
C:   00000906  A$eeprom$1483                      eeprom
C:   00000907  A$eeprom$1484                      eeprom
C:   00000909  A$eeprom$1485                      eeprom
C:   0000090B  A$eeprom$1486                      eeprom
C:   0000090D  A$eeprom$1487                      eeprom
C:   0000090E  A$eeprom$1488                      eeprom
C:   0000090F  A$eeprom$1489                      eeprom
C:   00000910  A$eeprom$1490                      eeprom
C:   00000912  A$eeprom$1491                      eeprom
C:   00000913  A$eeprom$1492                      eeprom
C:   00000914  A$eeprom$1493                      eeprom
C:   00000916  A$eeprom$1494                      eeprom
C:   00000918  A$eeprom$1498                      eeprom
C:   00000918  C$eeprom.c$61$1$26                 eeprom
C:   0000091A  A$eeprom$1499                      eeprom
C:   0000091D  A$eeprom$1500                      eeprom
C:   00000920  A$eeprom$1503                      eeprom
C:   00000920  C$eeprom.c$62$1$26                 eeprom
C:   00000922  A$eeprom$1504                      eeprom
C:   00000923  A$eeprom$1505                      eeprom
C:   00000925  A$eeprom$1506                      eeprom
C:   00000927  A$eeprom$1507                      eeprom
C:   00000928  A$eeprom$1508                      eeprom
C:   00000929  A$eeprom$1509                      eeprom
C:   0000092A  A$eeprom$1510                      eeprom
C:   0000092C  A$eeprom$1511                      eeprom
C:   0000092D  A$eeprom$1512                      eeprom
C:   0000092E  A$eeprom$1513                      eeprom
C:   00000930  A$eeprom$1514                      eeprom
C:   00000932  A$eeprom$1518                      eeprom
C:   00000932  C$eeprom.c$64$1$26                 eeprom
C:   00000934  A$eeprom$1521                      eeprom
C:   00000934  C$eeprom.c$65$1$26                 eeprom
ASxxxx Linker V03.00 + NoICE + sdld,  page 61.
Hexadecimal  [32-Bits]

Area                                    Addr        Size        Decimal Bytes (Attributes)
--------------------------------        ----        ----        ------- ----- ------------
CSEG                                00000113    00001083 =        4227. bytes (REL,CON,CODE)

      Value  Global                              Global Defined In Module
      -----  --------------------------------   ------------------------
C:   00000936  A$eeprom$1524                      eeprom
C:   00000936  C$eeprom.c$66$1$26                 eeprom
C:   00000939  A$eeprom$1528                      eeprom
C:   00000939  C$eeprom.c$67$1$26                 eeprom
C:   0000093C  A$eeprom$1531                      eeprom
C:   0000093C  C$eeprom.c$69$1$26                 eeprom
C:   0000093E  A$eeprom$1532                      eeprom
C:   00000941  A$eeprom$1533                      eeprom
C:   00000943  A$eeprom$1537                      eeprom
C:   00000943  C$eeprom.c$70$2$28                 eeprom
C:   00000945  A$eeprom$1538                      eeprom
C:   00000947  A$eeprom$1539                      eeprom
C:   00000948  A$eeprom$1540                      eeprom
C:   00000949  A$eeprom$1541                      eeprom
C:   0000094A  A$eeprom$1542                      eeprom
C:   0000094C  A$eeprom$1543                      eeprom
C:   0000094D  A$eeprom$1544                      eeprom
C:   0000094E  A$eeprom$1545                      eeprom
C:   00000950  A$eeprom$1546                      eeprom
C:   00000952  A$eeprom$1550                      eeprom
C:   00000952  C$eeprom.c$73$1$26                 eeprom
C:   00000954  A$eeprom$1551                      eeprom
C:   00000956  A$eeprom$1554                      eeprom
C:   00000956  C$eeprom.c$74$1$26                 eeprom
C:   00000958  A$eeprom$1555                      eeprom
C:   0000095A  A$eeprom$1556                      eeprom
C:   0000095D  A$eeprom$1557                      eeprom
C:   0000095F  A$eeprom$1558                      eeprom
C:   00000961  A$eeprom$1561                      eeprom
C:   00000961  C$eeprom.c$76$1$26                 eeprom
C:   00000963  A$eeprom$1562                      eeprom
C:   00000965  A$eeprom$1566                      eeprom
C:   00000965  C$eeprom.c$77$1$26                 eeprom
C:   00000965  XG$le_eeprom$0$0                   eeprom
C:   00000966  A$eeprom$1581                      eeprom
C:   00000966  C$eeprom.c$79$1$26                 eeprom
C:   00000966  G$esc_eeprom$0$0                   eeprom
C:   00000966  _esc_eeprom                        eeprom
C:   00000968  A$eeprom$1584                      eeprom
C:   00000968  C$eeprom.c$82$1$30                 eeprom
C:   0000096A  A$eeprom$1585                      eeprom
C:   0000096D  A$eeprom$1586                      eeprom
C:   0000096F  A$eeprom$1587                      eeprom
C:   00000972  A$eeprom$1588                      eeprom
C:   00000974  A$eeprom$1589                      eeprom
C:   00000976  A$eeprom$1592                      eeprom
C:   00000976  C$eeprom.c$83$1$30                 eeprom
C:   00000977  A$eeprom$1593                      eeprom
C:   00000979  A$eeprom$1594                      eeprom
C:   0000097B  A$eeprom$1595                      eeprom
C:   0000097D  A$eeprom$1596                      eeprom
ASxxxx Linker V03.00 + NoICE + sdld,  page 62.
Hexadecimal  [32-Bits]

Area                                    Addr        Size        Decimal Bytes (Attributes)
--------------------------------        ----        ----        ------- ----- ------------
CSEG                                00000113    00001083 =        4227. bytes (REL,CON,CODE)

      Value  Global                              Global Defined In Module
      -----  --------------------------------   ------------------------
C:   0000097E  A$eeprom$1597                      eeprom
C:   0000097F  A$eeprom$1598                      eeprom
C:   00000980  A$eeprom$1599                      eeprom
C:   00000982  A$eeprom$1600                      eeprom
C:   00000983  A$eeprom$1601                      eeprom
C:   00000984  A$eeprom$1602                      eeprom
C:   00000986  A$eeprom$1603                      eeprom
C:   00000988  A$eeprom$1607                      eeprom
C:   00000988  C$eeprom.c$85$1$30                 eeprom
C:   0000098A  A$eeprom$1608                      eeprom
C:   0000098D  A$eeprom$1611                      eeprom
C:   0000098D  C$eeprom.c$86$1$30                 eeprom
C:   0000098F  A$eeprom$1612                      eeprom
C:   00000990  A$eeprom$1613                      eeprom
C:   00000992  A$eeprom$1614                      eeprom
C:   00000994  A$eeprom$1615                      eeprom
C:   00000996  A$eeprom$1616                      eeprom
C:   00000997  A$eeprom$1617                      eeprom
C:   00000998  A$eeprom$1618                      eeprom
C:   00000999  A$eeprom$1619                      eeprom
C:   0000099B  A$eeprom$1620                      eeprom
C:   0000099C  A$eeprom$1621                      eeprom
C:   0000099D  A$eeprom$1622                      eeprom
C:   0000099F  A$eeprom$1623                      eeprom
C:   000009A1  A$eeprom$1627                      eeprom
C:   000009A1  C$eeprom.c$88$1$30                 eeprom
C:   000009A4  A$eeprom$1628                      eeprom
C:   000009A7  A$eeprom$1631                      eeprom
C:   000009A7  C$eeprom.c$89$1$30                 eeprom
C:   000009A9  A$eeprom$1632                      eeprom
C:   000009AA  A$eeprom$1633                      eeprom
C:   000009AC  A$eeprom$1634                      eeprom
C:   000009AE  A$eeprom$1635                      eeprom
C:   000009B0  A$eeprom$1636                      eeprom
C:   000009B1  A$eeprom$1637                      eeprom
C:   000009B2  A$eeprom$1638                      eeprom
C:   000009B3  A$eeprom$1639                      eeprom
C:   000009B5  A$eeprom$1640                      eeprom
C:   000009B6  A$eeprom$1641                      eeprom
C:   000009B7  A$eeprom$1642                      eeprom
C:   000009B9  A$eeprom$1643                      eeprom
C:   000009BB  A$eeprom$1647                      eeprom
C:   000009BB  C$eeprom.c$91$1$30                 eeprom
C:   000009BE  A$eeprom$1650                      eeprom
C:   000009BE  C$eeprom.c$93$1$30                 eeprom
C:   000009C1  A$eeprom$1656                      eeprom
C:   000009C1  C$eeprom.c$94$1$30                 eeprom
C:   000009C1  C$eeprom.c$95$2$31                 eeprom
C:   000009C3  A$eeprom$1657                      eeprom
C:   000009C6  A$eeprom$1658                      eeprom
C:   000009C9  A$eeprom$1659                      eeprom
ASxxxx Linker V03.00 + NoICE + sdld,  page 63.
Hexadecimal  [32-Bits]

Area                                    Addr        Size        Decimal Bytes (Attributes)
--------------------------------        ----        ----        ------- ----- ------------
CSEG                                00000113    00001083 =        4227. bytes (REL,CON,CODE)

      Value  Global                              Global Defined In Module
      -----  --------------------------------   ------------------------
C:   000009CB  A$eeprom$1662                      eeprom
C:   000009CB  C$eeprom.c$96$1$30                 eeprom
C:   000009CE  A$eeprom$1663                      eeprom
C:   000009D0  A$eeprom$1667                      eeprom
C:   000009D0  C$eeprom.c$98$1$30                 eeprom
C:   000009D2  A$eeprom$1668                      eeprom
C:   000009D3  A$eeprom$1669                      eeprom
C:   000009D4  A$eeprom$1670                      eeprom
C:   000009D5  A$eeprom$1671                      eeprom
C:   000009D7  A$eeprom$1672                      eeprom
C:   000009D8  A$eeprom$1673                      eeprom
C:   000009D9  A$eeprom$1674                      eeprom
C:   000009DB  A$eeprom$1678                      eeprom
C:   000009DB  C$eeprom.c$99$1$30                 eeprom
C:   000009DB  XG$esc_eeprom$0$0                  eeprom
C:   000009DC  A$eeprom$1691                      eeprom
C:   000009DC  C$eeprom.c$101$1$30                eeprom
C:   000009DC  G$guarda_eeprom$0$0                eeprom
C:   000009DC  _guarda_eeprom                     eeprom
C:   000009DE  A$eeprom$1694                      eeprom
C:   000009DE  C$eeprom.c$102$1$33                eeprom
C:   000009E0  A$eeprom$1695                      eeprom
C:   000009E1  A$eeprom$1696                      eeprom
C:   000009E2  A$eeprom$1697                      eeprom
C:   000009E3  A$eeprom$1698                      eeprom
C:   000009E5  A$eeprom$1699                      eeprom
C:   000009E6  A$eeprom$1700                      eeprom
C:   000009E7  A$eeprom$1701                      eeprom
C:   000009E9  A$eeprom$1702                      eeprom
C:   000009EA  A$eeprom$1703                      eeprom
C:   000009EB  A$eeprom$1704                      eeprom
C:   000009EC  A$eeprom$1705                      eeprom
C:   000009EE  A$eeprom$1706                      eeprom
C:   000009F1  A$eeprom$1707                      eeprom
C:   000009F4  A$eeprom$1710                      eeprom
C:   000009F4  C$eeprom.c$103$1$33                eeprom
C:   000009F6  A$eeprom$1711                      eeprom
C:   000009F8  A$eeprom$1712                      eeprom
C:   000009FA  A$eeprom$1713                      eeprom
C:   000009FC  A$eeprom$1714                      eeprom
C:   000009FD  A$eeprom$1715                      eeprom
C:   00000A00  A$eeprom$1717                      eeprom
C:   00000A02  A$eeprom$1718                      eeprom
C:   00000A05  A$eeprom$1719                      eeprom
C:   00000A07  A$eeprom$1720                      eeprom
C:   00000A09  A$eeprom$1723                      eeprom
C:   00000A09  C$eeprom.c$104$1$33                eeprom
C:   00000A09  XG$guarda_eeprom$0$0               eeprom
C:   00000A0A  A$eeprom$1736                      eeprom
C:   00000A0A  C$eeprom.c$106$1$33                eeprom
C:   00000A0A  C$eeprom.c$107$1$35                eeprom
ASxxxx Linker V03.00 + NoICE + sdld,  page 64.
Hexadecimal  [32-Bits]

Area                                    Addr        Size        Decimal Bytes (Attributes)
--------------------------------        ----        ----        ------- ----- ------------
CSEG                                00000113    00001083 =        4227. bytes (REL,CON,CODE)

      Value  Global                              Global Defined In Module
      -----  --------------------------------   ------------------------
C:   00000A0A  G$ISR_TC4$0$0                      eeprom
C:   00000A0A  _ISR_TC4                           eeprom
C:   00000A0D  A$eeprom$1739                      eeprom
C:   00000A0D  C$eeprom.c$108$1$35                eeprom
C:   00000A10  A$eeprom$1742                      eeprom
C:   00000A10  C$eeprom.c$109$1$35                eeprom
C:   00000A12  A$eeprom$1745                      eeprom
C:   00000A12  C$eeprom.c$110$1$35                eeprom
C:   00000A12  XG$ISR_TC4$0$0                     eeprom
C:   00000A13  A$buzzer$1264                      buzzer
C:   00000A13  C$buzzer.c$10$0$0                  buzzer
C:   00000A13  C$buzzer.c$11$1$15                 buzzer
C:   00000A13  G$buzzer_on$0$0                    buzzer
C:   00000A13  _buzzer_on                         buzzer
C:   00000A16  A$buzzer$1267                      buzzer
C:   00000A16  C$buzzer.c$12$1$15                 buzzer
C:   00000A16  XG$buzzer_on$0$0                   buzzer
C:   00000A17  A$buzzer$1280                      buzzer
C:   00000A17  C$buzzer.c$14$1$15                 buzzer
C:   00000A17  C$buzzer.c$15$1$17                 buzzer
C:   00000A17  G$buzzer_off$0$0                   buzzer
C:   00000A17  _buzzer_off                        buzzer
C:   00000A1A  A$buzzer$1283                      buzzer
C:   00000A1A  C$buzzer.c$16$1$17                 buzzer
C:   00000A1A  XG$buzzer_off$0$0                  buzzer
C:   00000A1B  A$buzzer$1296                      buzzer
C:   00000A1B  C$buzzer.c$18$1$17                 buzzer
C:   00000A1B  C$buzzer.c$19$1$19                 buzzer
C:   00000A1B  G$buzzer_bip$0$0                   buzzer
C:   00000A1B  _buzzer_bip                        buzzer
C:   00000A1E  A$buzzer$1299                      buzzer
C:   00000A1E  C$buzzer.c$20$1$19                 buzzer
C:   00000A21  A$buzzer$1300                      buzzer
C:   00000A24  A$buzzer$1303                      buzzer
C:   00000A24  C$buzzer.c$21$1$19                 buzzer
C:   00000A24  XG$buzzer_bip$0$0                  buzzer
C:   00000A25  A$buzzer$1316                      buzzer
C:   00000A25  C$buzzer.c$23$1$19                 buzzer
C:   00000A25  C$buzzer.c$24$1$21                 buzzer
C:   00000A25  G$atualiza_buzzer$0$0              buzzer
C:   00000A25  _atualiza_buzzer                   buzzer
C:   00000A27  A$buzzer$1317                      buzzer
C:   00000A28  A$buzzer$1318                      buzzer
C:   00000A2A  A$buzzer$1319                      buzzer
C:   00000A2B  A$buzzer$1320                      buzzer
C:   00000A2D  A$buzzer$1321                      buzzer
C:   00000A2F  A$buzzer$1322                      buzzer
C:   00000A30  A$buzzer$1323                      buzzer
C:   00000A31  A$buzzer$1324                      buzzer
C:   00000A33  A$buzzer$1325                      buzzer
C:   00000A34  A$buzzer$1326                      buzzer
ASxxxx Linker V03.00 + NoICE + sdld,  page 65.
Hexadecimal  [32-Bits]

Area                                    Addr        Size        Decimal Bytes (Attributes)
--------------------------------        ----        ----        ------- ----- ------------
CSEG                                00000113    00001083 =        4227. bytes (REL,CON,CODE)

      Value  Global                              Global Defined In Module
      -----  --------------------------------   ------------------------
C:   00000A36  A$buzzer$1327                      buzzer
C:   00000A37  A$buzzer$1328                      buzzer
C:   00000A39  A$buzzer$1331                      buzzer
C:   00000A39  C$buzzer.c$25$2$22                 buzzer
C:   00000A3C  A$buzzer$1335                      buzzer
C:   00000A3C  C$buzzer.c$27$1$21                 buzzer
C:   00000A3C  XG$atualiza_buzzer$0$0             buzzer
C:   00000A3D  A$buzzer$1348                      buzzer
C:   00000A3D  C$buzzer.c$29$1$21                 buzzer
C:   00000A3D  C$buzzer.c$30$1$24                 buzzer
C:   00000A3D  G$ISR_TC3$0$0                      buzzer
C:   00000A3D  _ISR_TC3                           buzzer
C:   00000A40  A$buzzer$1351                      buzzer
C:   00000A40  C$buzzer.c$31$1$24                 buzzer
C:   00000A42  A$buzzer$1354                      buzzer
C:   00000A42  C$buzzer.c$32$1$24                 buzzer
C:   00000A45  A$buzzer$1357                      buzzer
C:   00000A45  C$buzzer.c$33$1$24                 buzzer
C:   00000A47  A$buzzer$1360                      buzzer
C:   00000A47  C$buzzer.c$34$1$24                 buzzer
C:   00000A47  XG$ISR_TC3$0$0                     buzzer
C:   00000A48  A$filtro$1296                      filtro
C:   00000A48  C$filtro.c$10$0$0                  filtro
C:   00000A48  G$guarda_buffer$0$0                filtro
C:   00000A48  _guarda_buffer                     filtro
C:   00000A4A  A$filtro$1297                      filtro
C:   00000A4C  A$filtro$1300                      filtro
C:   00000A4C  C$filtro.c$11$1$9                  filtro
C:   00000A4E  A$filtro$1301                      filtro
C:   00000A51  A$filtro$1302                      filtro
C:   00000A52  A$filtro$1303                      filtro
C:   00000A54  A$filtro$1304                      filtro
C:   00000A56  A$filtro$1305                      filtro
C:   00000A58  A$filtro$1306                      filtro
C:   00000A5A  A$filtro$1307                      filtro
C:   00000A5C  A$filtro$1308                      filtro
C:   00000A5F  A$filtro$1309                      filtro
C:   00000A62  A$filtro$1310                      filtro
C:   00000A63  A$filtro$1311                      filtro
C:   00000A64  A$filtro$1312                      filtro
C:   00000A65  A$filtro$1313                      filtro
C:   00000A66  A$filtro$1314                      filtro
C:   00000A67  A$filtro$1315                      filtro
C:   00000A68  A$filtro$1316                      filtro
C:   00000A69  A$filtro$1317                      filtro
C:   00000A6A  A$filtro$1318                      filtro
C:   00000A6B  A$filtro$1319                      filtro
C:   00000A6C  A$filtro$1320                      filtro
C:   00000A6D  A$filtro$1321                      filtro
C:   00000A6F  A$filtro$1322                      filtro
C:   00000A71  A$filtro$1323                      filtro
ASxxxx Linker V03.00 + NoICE + sdld,  page 66.
Hexadecimal  [32-Bits]

Area                                    Addr        Size        Decimal Bytes (Attributes)
--------------------------------        ----        ----        ------- ----- ------------
CSEG                                00000113    00001083 =        4227. bytes (REL,CON,CODE)

      Value  Global                              Global Defined In Module
      -----  --------------------------------   ------------------------
C:   00000A73  A$filtro$1324                      filtro
C:   00000A75  A$filtro$1325                      filtro
C:   00000A77  A$filtro$1326                      filtro
C:   00000A79  A$filtro$1327                      filtro
C:   00000A7C  A$filtro$1328                      filtro
C:   00000A7F  A$filtro$1329                      filtro
C:   00000A82  A$filtro$1330                      filtro
C:   00000A84  A$filtro$1331                      filtro
C:   00000A87  A$filtro$1332                      filtro
C:   00000A8A  A$filtro$1333                      filtro
C:   00000A8D  A$filtro$1334                      filtro
C:   00000A90  A$filtro$1335                      filtro
C:   00000A92  A$filtro$1336                      filtro
C:   00000A94  A$filtro$1337                      filtro
C:   00000A96  A$filtro$1338                      filtro
C:   00000A98  A$filtro$1339                      filtro
C:   00000A9A  A$filtro$1340                      filtro
C:   00000A9C  A$filtro$1343                      filtro
C:   00000A9C  C$filtro.c$12$1$9                  filtro
C:   00000A9E  A$filtro$1344                      filtro
C:   00000AA0  A$filtro$1345                      filtro
C:   00000AA3  A$filtro$1346                      filtro
C:   00000AA5  A$filtro$1347                      filtro
C:   00000AA7  A$filtro$1348                      filtro
C:   00000AA9  A$filtro$1349                      filtro
C:   00000AAA  A$filtro$1350                      filtro
C:   00000AAC  A$filtro$1351                      filtro
C:   00000AAE  A$filtro$1352                      filtro
C:   00000AB0  A$filtro$1353                      filtro
C:   00000AB2  A$filtro$1354                      filtro
C:   00000AB4  A$filtro$1355                      filtro
C:   00000AB6  A$filtro$1356                      filtro
C:   00000AB8  A$filtro$1357                      filtro
C:   00000ABA  A$filtro$1358                      filtro
C:   00000ABD  A$filtro$1359                      filtro
C:   00000AC0  A$filtro$1360                      filtro
C:   00000AC3  A$filtro$1361                      filtro
C:   00000AC5  A$filtro$1362                      filtro
C:   00000AC8  A$filtro$1363                      filtro
C:   00000ACB  A$filtro$1364                      filtro
C:   00000ACE  A$filtro$1365                      filtro
C:   00000AD1  A$filtro$1366                      filtro
C:   00000AD3  A$filtro$1367                      filtro
C:   00000AD5  A$filtro$1368                      filtro
C:   00000AD7  A$filtro$1369                      filtro
C:   00000AD9  A$filtro$1370                      filtro
C:   00000ADB  A$filtro$1371                      filtro
C:   00000ADD  A$filtro$1372                      filtro
C:   00000ADF  A$filtro$1373                      filtro
C:   00000AE1  A$filtro$1376                      filtro
C:   00000AE1  C$filtro.c$13$1$9                  filtro
ASxxxx Linker V03.00 + NoICE + sdld,  page 67.
Hexadecimal  [32-Bits]

Area                                    Addr        Size        Decimal Bytes (Attributes)
--------------------------------        ----        ----        ------- ----- ------------
CSEG                                00000113    00001083 =        4227. bytes (REL,CON,CODE)

      Value  Global                              Global Defined In Module
      -----  --------------------------------   ------------------------
C:   00000AE4  A$filtro$1377                      filtro
C:   00000AE7  A$filtro$1378                      filtro
C:   00000AE8  A$filtro$1379                      filtro
C:   00000AE9  A$filtro$1380                      filtro
C:   00000AEA  A$filtro$1381                      filtro
C:   00000AEB  A$filtro$1382                      filtro
C:   00000AEC  A$filtro$1383                      filtro
C:   00000AED  A$filtro$1384                      filtro
C:   00000AEE  A$filtro$1385                      filtro
C:   00000AEF  A$filtro$1386                      filtro
C:   00000AF0  A$filtro$1387                      filtro
C:   00000AF1  A$filtro$1388                      filtro
C:   00000AF2  A$filtro$1391                      filtro
C:   00000AF2  C$filtro.c$14$1$9                  filtro
C:   00000AF4  A$filtro$1392                      filtro
C:   00000AF6  A$filtro$1393                      filtro
C:   00000AF8  A$filtro$1394                      filtro
C:   00000AFA  A$filtro$1395                      filtro
C:   00000AFB  A$filtro$1396                      filtro
C:   00000AFD  A$filtro$1397                      filtro
C:   00000AFF  A$filtro$1398                      filtro
C:   00000B01  A$filtro$1399                      filtro
C:   00000B03  A$filtro$1400                      filtro
C:   00000B05  A$filtro$1401                      filtro
C:   00000B07  A$filtro$1402                      filtro
C:   00000B0A  A$filtro$1403                      filtro
C:   00000B0D  A$filtro$1404                      filtro
C:   00000B10  A$filtro$1405                      filtro
C:   00000B12  A$filtro$1406                      filtro
C:   00000B15  A$filtro$1407                      filtro
C:   00000B17  A$filtro$1408                      filtro
C:   00000B19  A$filtro$1409                      filtro
C:   00000B1B  A$filtro$1410                      filtro
C:   00000B1C  A$filtro$1411                      filtro
C:   00000B1E  A$filtro$1412                      filtro
C:   00000B20  A$filtro$1413                      filtro
C:   00000B22  A$filtro$1414                      filtro
C:   00000B24  A$filtro$1415                      filtro
C:   00000B26  A$filtro$1416                      filtro
C:   00000B28  A$filtro$1417                      filtro
C:   00000B2A  A$filtro$1418                      filtro
C:   00000B2C  A$filtro$1419                      filtro
C:   00000B2E  A$filtro$1420                      filtro
C:   00000B30  A$filtro$1421                      filtro
C:   00000B32  A$filtro$1422                      filtro
C:   00000B34  A$filtro$1423                      filtro
C:   00000B36  A$filtro$1424                      filtro
C:   00000B38  A$filtro$1425                      filtro
C:   00000B39  A$filtro$1426                      filtro
C:   00000B3C  A$filtro$1427                      filtro
C:   00000B3E  A$filtro$1428                      filtro
ASxxxx Linker V03.00 + NoICE + sdld,  page 68.
Hexadecimal  [32-Bits]

Area                                    Addr        Size        Decimal Bytes (Attributes)
--------------------------------        ----        ----        ------- ----- ------------
CSEG                                00000113    00001083 =        4227. bytes (REL,CON,CODE)

      Value  Global                              Global Defined In Module
      -----  --------------------------------   ------------------------
C:   00000B40  A$filtro$1429                      filtro
C:   00000B42  A$filtro$1430                      filtro
C:   00000B43  A$filtro$1431                      filtro
C:   00000B45  A$filtro$1432                      filtro
C:   00000B47  A$filtro$1433                      filtro
C:   00000B49  A$filtro$1434                      filtro
C:   00000B4C  A$filtro$1435                      filtro
C:   00000B4F  A$filtro$1436                      filtro
C:   00000B50  A$filtro$1437                      filtro
C:   00000B51  A$filtro$1438                      filtro
C:   00000B52  A$filtro$1439                      filtro
C:   00000B53  A$filtro$1440                      filtro
C:   00000B54  A$filtro$1441                      filtro
C:   00000B55  A$filtro$1442                      filtro
C:   00000B56  A$filtro$1443                      filtro
C:   00000B57  A$filtro$1444                      filtro
C:   00000B58  A$filtro$1445                      filtro
C:   00000B59  A$filtro$1446                      filtro
C:   00000B5A  A$filtro$1449                      filtro
C:   00000B5A  C$filtro.c$15$1$9                  filtro
C:   00000B5C  A$filtro$1450                      filtro
C:   00000B5E  A$filtro$1451                      filtro
C:   00000B60  A$filtro$1452                      filtro
C:   00000B62  A$filtro$1453                      filtro
C:   00000B63  A$filtro$1455                      filtro
C:   00000B65  A$filtro$1456                      filtro
C:   00000B68  A$filtro$1457                      filtro
C:   00000B6B  A$filtro$1458                      filtro
C:   00000B6D  A$filtro$1459                      filtro
C:   00000B6F  A$filtro$1462                      filtro
C:   00000B6F  C$filtro.c$16$1$9                  filtro
C:   00000B6F  XG$guarda_buffer$0$0               filtro
C:   00000B70  A$filtro$1482                      filtro
C:   00000B70  C$filtro.c$18$1$9                  filtro
C:   00000B70  G$limites_amostras$0$0             filtro
C:   00000B70  _limites_amostras                  filtro
C:   00000B72  A$filtro$1485                      filtro
C:   00000B72  C$filtro.c$19$1$9                  filtro
C:   00000B74  A$filtro$1490                      filtro
C:   00000B74  C$filtro.c$20$1$9                  filtro
C:   00000B74  C$filtro.c$21$1$11                 filtro
C:   00000B75  A$filtro$1491                      filtro
C:   00000B76  A$filtro$1492                      filtro
C:   00000B79  A$filtro$1493                      filtro
C:   00000B7A  A$filtro$1494                      filtro
C:   00000B7C  A$filtro$1495                      filtro
C:   00000B7E  A$filtro$1496                      filtro
C:   00000B80  A$filtro$1497                      filtro
C:   00000B82  A$filtro$1498                      filtro
C:   00000B84  A$filtro$1499                      filtro
C:   00000B85  A$filtro$1500                      filtro
ASxxxx Linker V03.00 + NoICE + sdld,  page 69.
Hexadecimal  [32-Bits]

Area                                    Addr        Size        Decimal Bytes (Attributes)
--------------------------------        ----        ----        ------- ----- ------------
CSEG                                00000113    00001083 =        4227. bytes (REL,CON,CODE)

      Value  Global                              Global Defined In Module
      -----  --------------------------------   ------------------------
C:   00000B87  A$filtro$1501                      filtro
C:   00000B88  A$filtro$1502                      filtro
C:   00000B89  A$filtro$1503                      filtro
C:   00000B8B  A$filtro$1504                      filtro
C:   00000B8C  A$filtro$1505                      filtro
C:   00000B8D  A$filtro$1506                      filtro
C:   00000B8F  A$filtro$1507                      filtro
C:   00000B90  A$filtro$1508                      filtro
C:   00000B91  A$filtro$1509                      filtro
C:   00000B93  A$filtro$1512                      filtro
C:   00000B93  C$filtro.c$23$1$11                 filtro
C:   00000B96  A$filtro$1513                      filtro
C:   00000B99  A$filtro$1514                      filtro
C:   00000B9C  A$filtro$1515                      filtro
C:   00000B9F  A$filtro$1516                      filtro
C:   00000BA2  A$filtro$1517                      filtro
C:   00000BA5  A$filtro$1518                      filtro
C:   00000BA8  A$filtro$1519                      filtro
C:   00000BAB  A$filtro$1520                      filtro
C:   00000BAE  A$filtro$1521                      filtro
C:   00000BB0  A$filtro$1522                      filtro
C:   00000BB3  A$filtro$1523                      filtro
C:   00000BB4  A$filtro$1524                      filtro
C:   00000BB6  A$filtro$1525                      filtro
C:   00000BB9  A$filtro$1526                      filtro
C:   00000BBA  A$filtro$1527                      filtro
C:   00000BBC  A$filtro$1528                      filtro
C:   00000BBF  A$filtro$1529                      filtro
C:   00000BC0  A$filtro$1530                      filtro
C:   00000BC2  A$filtro$1531                      filtro
C:   00000BC5  A$filtro$1532                      filtro
C:   00000BC8  A$filtro$1533                      filtro
C:   00000BCB  A$filtro$1534                      filtro
C:   00000BCE  A$filtro$1535                      filtro
C:   00000BD0  A$filtro$1536                      filtro
C:   00000BD3  A$filtro$1537                      filtro
C:   00000BD4  A$filtro$1538                      filtro
C:   00000BD6  A$filtro$1539                      filtro
C:   00000BD9  A$filtro$1540                      filtro
C:   00000BDA  A$filtro$1541                      filtro
C:   00000BDC  A$filtro$1542                      filtro
C:   00000BDF  A$filtro$1543                      filtro
C:   00000BE0  A$filtro$1544                      filtro
C:   00000BE2  A$filtro$1545                      filtro
C:   00000BE5  A$filtro$1548                      filtro
C:   00000BE5  C$filtro.c$25$1$11                 filtro
C:   00000BE6  A$filtro$1549                      filtro
C:   00000BE7  A$filtro$1550                      filtro
C:   00000BE8  A$filtro$1554                      filtro
C:   00000BE8  C$filtro.c$26$2$12                 filtro
C:   00000BE9  A$filtro$1557                      filtro
ASxxxx Linker V03.00 + NoICE + sdld,  page 70.
Hexadecimal  [32-Bits]

Area                                    Addr        Size        Decimal Bytes (Attributes)
--------------------------------        ----        ----        ------- ----- ------------
CSEG                                00000113    00001083 =        4227. bytes (REL,CON,CODE)

      Value  Global                              Global Defined In Module
      -----  --------------------------------   ------------------------
C:   00000BE9  C$filtro.c$27$2$12                 filtro
C:   00000BEA  A$filtro$1558                      filtro
C:   00000BED  A$filtro$1559                      filtro
C:   00000BEE  A$filtro$1560                      filtro
C:   00000BF0  A$filtro$1561                      filtro
C:   00000BF2  A$filtro$1562                      filtro
C:   00000BF4  A$filtro$1563                      filtro
C:   00000BF6  A$filtro$1564                      filtro
C:   00000BF8  A$filtro$1565                      filtro
C:   00000BF9  A$filtro$1566                      filtro
C:   00000BFB  A$filtro$1567                      filtro
C:   00000BFC  A$filtro$1568                      filtro
C:   00000BFD  A$filtro$1569                      filtro
C:   00000BFF  A$filtro$1570                      filtro
C:   00000C00  A$filtro$1571                      filtro
C:   00000C01  A$filtro$1572                      filtro
C:   00000C03  A$filtro$1573                      filtro
C:   00000C04  A$filtro$1574                      filtro
C:   00000C05  A$filtro$1575                      filtro
C:   00000C07  A$filtro$1578                      filtro
C:   00000C07  C$filtro.c$28$2$12                 filtro
C:   00000C0A  A$filtro$1579                      filtro
C:   00000C0D  A$filtro$1580                      filtro
C:   00000C10  A$filtro$1581                      filtro
C:   00000C13  A$filtro$1582                      filtro
C:   00000C14  A$filtro$1583                      filtro
C:   00000C15  A$filtro$1584                      filtro
C:   00000C18  A$filtro$1585                      filtro
C:   00000C19  A$filtro$1586                      filtro
C:   00000C1A  A$filtro$1587                      filtro
C:   00000C1D  A$filtro$1588                      filtro
C:   00000C1E  A$filtro$1589                      filtro
C:   00000C1F  A$filtro$1590                      filtro
C:   00000C22  A$filtro$1591                      filtro
C:   00000C23  A$filtro$1592                      filtro
C:   00000C25  A$filtro$1593                      filtro
C:   00000C27  A$filtro$1594                      filtro
C:   00000C29  A$filtro$1595                      filtro
C:   00000C2B  A$filtro$1596                      filtro
C:   00000C2D  A$filtro$1597                      filtro
C:   00000C2F  A$filtro$1598                      filtro
C:   00000C32  A$filtro$1599                      filtro
C:   00000C35  A$filtro$1600                      filtro
C:   00000C38  A$filtro$1601                      filtro
C:   00000C3A  A$filtro$1602                      filtro
C:   00000C3D  A$filtro$1603                      filtro
C:   00000C3F  A$filtro$1604                      filtro
C:   00000C41  A$filtro$1605                      filtro
C:   00000C43  A$filtro$1606                      filtro
C:   00000C45  A$filtro$1607                      filtro
C:   00000C47  A$filtro$1608                      filtro
ASxxxx Linker V03.00 + NoICE + sdld,  page 71.
Hexadecimal  [32-Bits]

Area                                    Addr        Size        Decimal Bytes (Attributes)
--------------------------------        ----        ----        ------- ----- ------------
CSEG                                00000113    00001083 =        4227. bytes (REL,CON,CODE)

      Value  Global                              Global Defined In Module
      -----  --------------------------------   ------------------------
C:   00000C49  A$filtro$1609                      filtro
C:   00000C4A  A$filtro$1610                      filtro
C:   00000C4C  A$filtro$1613                      filtro
C:   00000C4C  C$filtro.c$29$2$12                 filtro
C:   00000C4F  A$filtro$1614                      filtro
C:   00000C52  A$filtro$1615                      filtro
C:   00000C55  A$filtro$1616                      filtro
C:   00000C57  A$filtro$1617                      filtro
C:   00000C5A  A$filtro$1618                      filtro
C:   00000C5B  A$filtro$1619                      filtro
C:   00000C5D  A$filtro$1620                      filtro
C:   00000C60  A$filtro$1621                      filtro
C:   00000C61  A$filtro$1622                      filtro
C:   00000C63  A$filtro$1623                      filtro
C:   00000C66  A$filtro$1624                      filtro
C:   00000C67  A$filtro$1625                      filtro
C:   00000C69  A$filtro$1626                      filtro
C:   00000C6C  A$filtro$1630                      filtro
C:   00000C6C  C$filtro.c$30$2$12                 filtro
C:   00000C6F  A$filtro$1631                      filtro
C:   00000C72  A$filtro$1632                      filtro
C:   00000C75  A$filtro$1633                      filtro
C:   00000C78  A$filtro$1634                      filtro
C:   00000C79  A$filtro$1635                      filtro
C:   00000C7A  A$filtro$1636                      filtro
C:   00000C7D  A$filtro$1637                      filtro
C:   00000C7E  A$filtro$1638                      filtro
C:   00000C7F  A$filtro$1639                      filtro
C:   00000C82  A$filtro$1640                      filtro
C:   00000C83  A$filtro$1641                      filtro
C:   00000C84  A$filtro$1642                      filtro
C:   00000C87  A$filtro$1643                      filtro
C:   00000C88  A$filtro$1644                      filtro
C:   00000C8A  A$filtro$1645                      filtro
C:   00000C8C  A$filtro$1646                      filtro
C:   00000C8E  A$filtro$1647                      filtro
C:   00000C90  A$filtro$1648                      filtro
C:   00000C92  A$filtro$1649                      filtro
C:   00000C94  A$filtro$1650                      filtro
C:   00000C97  A$filtro$1651                      filtro
C:   00000C9A  A$filtro$1652                      filtro
C:   00000C9D  A$filtro$1653                      filtro
C:   00000C9F  A$filtro$1654                      filtro
C:   00000CA2  A$filtro$1655                      filtro
C:   00000CA4  A$filtro$1656                      filtro
C:   00000CA6  A$filtro$1657                      filtro
C:   00000CA8  A$filtro$1658                      filtro
C:   00000CAA  A$filtro$1659                      filtro
C:   00000CAC  A$filtro$1660                      filtro
C:   00000CAE  A$filtro$1661                      filtro
C:   00000CAF  A$filtro$1662                      filtro
ASxxxx Linker V03.00 + NoICE + sdld,  page 72.
Hexadecimal  [32-Bits]

Area                                    Addr        Size        Decimal Bytes (Attributes)
--------------------------------        ----        ----        ------- ----- ------------
CSEG                                00000113    00001083 =        4227. bytes (REL,CON,CODE)

      Value  Global                              Global Defined In Module
      -----  --------------------------------   ------------------------
C:   00000CB1  A$filtro$1665                      filtro
C:   00000CB1  C$filtro.c$31$2$12                 filtro
C:   00000CB4  A$filtro$1666                      filtro
C:   00000CB7  A$filtro$1667                      filtro
C:   00000CBA  A$filtro$1668                      filtro
C:   00000CBC  A$filtro$1669                      filtro
C:   00000CBF  A$filtro$1670                      filtro
C:   00000CC0  A$filtro$1671                      filtro
C:   00000CC2  A$filtro$1672                      filtro
C:   00000CC5  A$filtro$1673                      filtro
C:   00000CC6  A$filtro$1674                      filtro
C:   00000CC8  A$filtro$1675                      filtro
C:   00000CCB  A$filtro$1676                      filtro
C:   00000CCC  A$filtro$1677                      filtro
C:   00000CCE  A$filtro$1678                      filtro
C:   00000CD1  A$filtro$1682                      filtro
C:   00000CD1  C$filtro.c$32$1$11                 filtro
C:   00000CD2  A$filtro$1683                      filtro
C:   00000CD5  A$filtro$1684                      filtro
C:   00000CD7  A$filtro$1686                      filtro
C:   00000CDA  A$filtro$1690                      filtro
C:   00000CDA  C$filtro.c$33$1$11                 filtro
C:   00000CDA  XG$limites_amostras$0$0            filtro
C:   00000CDB  ___fssub                           _fssub
C:   00000CE6  ___fsmul                           _fsmul
C:   00000D89  fsgetargs                          _fsget2args
C:   00000DB7  fs_normalize_a                     _fsnormalize
C:   00000DEA  ___fsgt                            _fsgt
C:   00000E1A  __gptrput                          _gptrput
C:   00000E35  ___fslt                            _fslt
C:   00000E65  __mulint                           _mulint
C:   00000E65  __mulint_dummy                     _mulint
C:   00000E82  __moduint                          _moduint
C:   00000ECF  ___fsadd                           _fsadd
C:   00000ED2  fsadd_direct_entry                 _fsadd
C:   00000F28  fs_compare_uint32                  _fscmp
C:   00000F46  fs_check_negative_zeros            _fscmp
C:   00000F71  ___uint2fs                         _uint2fs
C:   00000F7D  fs_round_and_return                _fsreturnval
C:   00000F95  fs_zerocheck_return                _fsreturnval
C:   00000F9E  fs_return_zero                     _fsreturnval
C:   00000FA6  fs_direct_return                   _fsreturnval
C:   00000FB4  fs_return_inf                      _fsreturnval
C:   00000FC1  fs_return_nan                      _fsreturnval
C:   00000FCC  fs_swap_a_b                        _fsswapargs
C:   00000FE6  ___fsdiv                           _fsdiv
C:   000010A9  __gptrget                          _gptrget
C:   000010C5  ___fs2uchar                        _fs2uchar
C:   000010CD  __modsint                          _modsint
C:   00001103  ___ulong2fs                        _ulong2fs
C:   0000110C  ulong2fs_doit                      _ulong2fs
ASxxxx Linker V03.00 + NoICE + sdld,  page 73.
Hexadecimal  [32-Bits]

Area                                    Addr        Size        Decimal Bytes (Attributes)
--------------------------------        ----        ----        ------- ----- ------------
CSEG                                00000113    00001083 =        4227. bytes (REL,CON,CODE)

      Value  Global                              Global Defined In Module
      -----  --------------------------------   ------------------------
C:   00001116  fs_rshift_a                        _fsrshift
C:   00001159  __sdcc_external_startup            _startup
C:   0000115D  ___fs2ulong                        _fs2ulong
C:   0000115F  fs2ulong_begin                     _fs2ulong
C:   00001184  fsgetarg                           _fsget1arg

ASxxxx Linker V03.00 + NoICE + sdld,  page 74.
Hexadecimal  [32-Bits]

Area                                    Addr        Size        Decimal Bytes (Attributes)
--------------------------------        ----        ----        ------- ----- ------------
CONST                               00001196    000001E0 =         480. bytes (REL,CON,CODE)

      Value  Global                              Global Defined In Module
      -----  --------------------------------   ------------------------
C:   00001196  G$fonte$0$0                        glcd
C:   00001196  _fonte                             glcd

ASxxxx Linker V03.00 + NoICE + sdld,  page 75.
Hexadecimal  [32-Bits]

Area                                    Addr        Size        Decimal Bytes (Attributes)
--------------------------------        ----        ----        ------- ----- ------------
XINIT                               00001376    00000400 =        1024. bytes (REL,CON,CODE)

      Value  Global                              Global Defined In Module
      -----  --------------------------------   ------------------------
C:   00001376  Ffiltro$__xinit_buffer$0$0         filtro

ASxxxx Linker V03.00 + NoICE + sdld,  page 76.

Files Linked                              [ module(s) ]

G:\Meu Drive\UFMS\7 Semestre\Microcontroladores e Aplicaes\ppg final\main.rel
                                          [  ]
G:\Meu Drive\UFMS\7 Semestre\Microcontroladores e Aplicaes\ppg final\util.rel
                                          [  ]
G:\Meu Drive\UFMS\7 Semestre\Microcontroladores e Aplicaes\ppg final\uart0.rel
                                          [  ]
G:\Meu Drive\UFMS\7 Semestre\Microcontroladores e Aplicaes\ppg final\glcd.rel
                                          [  ]
G:\Meu Drive\UFMS\7 Semestre\Microcontroladores e Aplicaes\ppg final\adc.rel
                                          [  ]
G:\Meu Drive\UFMS\7 Semestre\Microcontroladores e Aplicaes\ppg final\eeprom.rel
                                          [  ]
G:\Meu Drive\UFMS\7 Semestre\Microcontroladores e Aplicaes\ppg final\buzzer.rel
                                          [  ]
G:\Meu Drive\UFMS\7 Semestre\Microcontroladores e Aplicaes\ppg final\filtro.rel
                                          [  ]


Libraries Linked                          [ object file ]

C:\Program Files\SDCC\bin\..\lib\small/libfloat.lib
                                          [ _fssub.rel ]
C:\Program Files\SDCC\bin\..\lib\small/libfloat.lib
                                          [ _fsmul.rel ]
C:\Program Files\SDCC\bin\..\lib\small/libfloat.lib
                                          [ _fsget2args.rel ]
C:\Program Files\SDCC\bin\..\lib\small/mcs51.lib
                                          [ crtclear.rel ]
C:\Program Files\SDCC\bin\..\lib\small/libfloat.lib
                                          [ _fsnormalize.rel ]
C:\Program Files\SDCC\bin\..\lib\small/mcs51.lib
                                          [ crtxinit.rel ]
C:\Program Files\SDCC\bin\..\lib\small/libfloat.lib
                                          [ _fsgt.rel ]
C:\Program Files\SDCC\bin\..\lib\small/libsdcc.lib
                                          [ _gptrput.rel ]
C:\Program Files\SDCC\bin\..\lib\small/libfloat.lib
                                          [ _fslt.rel ]
C:\Program Files\SDCC\bin\..\lib\small/libint.lib
                                          [ _mulint.rel ]
C:\Program Files\SDCC\bin\..\lib\small/libint.lib
                                          [ _moduint.rel ]
C:\Program Files\SDCC\bin\..\lib\small/libfloat.lib
                                          [ _fsadd.rel ]
C:\Program Files\SDCC\bin\..\lib\small/mcs51.lib
                                          [ crtxclear.rel ]
C:\Program Files\SDCC\bin\..\lib\small/libfloat.lib
                                          [ _fscmp.rel ]
C:\Program Files\SDCC\bin\..\lib\small/libfloat.lib
                                          [ _uint2fs.rel ]
C:\Program Files\SDCC\bin\..\lib\small/libfloat.lib
                                          [ _fsreturnval.rel ]
C:\Program Files\SDCC\bin\..\lib\small/libfloat.lib
                                          [ _fsswapargs.rel ]
C:\Program Files\SDCC\bin\..\lib\small/libfloat.lib
                                          [ _fsdiv.rel ]
C:\Program Files\SDCC\bin\..\lib\small/mcs51.lib
                                          [ crtstart.rel ]
C:\Program Files\SDCC\bin\..\lib\small/libsdcc.lib
                                          [ _gptrget.rel ]
C:\Program Files\SDCC\bin\..\lib\small/libfloat.lib
                                          [ _fs2uchar.rel ]
C:\Program Files\SDCC\bin\..\lib\small/libint.lib
                                          [ _modsint.rel ]
C:\Program Files\SDCC\bin\..\lib\small/libfloat.lib
                                          [ _ulong2fs.rel ]
C:\Program Files\SDCC\bin\..\lib\small/libfloat.lib
                                          [ _fsrshift.rel ]
C:\Program Files\SDCC\bin\..\lib\small/libsdcc.lib
                                          [ _startup.rel ]
C:\Program Files\SDCC\bin\..\lib\small/libfloat.lib
                                          [ _fs2ulong.rel ]
C:\Program Files\SDCC\bin\..\lib\small/libfloat.lib
                                          [ _fsget1arg.rel ]

ASxxxx Linker V03.00 + NoICE + sdld,  page 77.

User Base Address Definitions

HOME = 0x0000
XSEG = 0x0001
PSEG = 0x0001
ISEG = 0x0000
BSEG = 0x0000

